
test19.elf:     file format elf32-littleriscv


Disassembly of section .text:

80000000 <_start>:
80000000:	04000663          	beqz	zero,8000004c <reset_vector>

80000004 <loop>:
80000004:	00000063          	beqz	zero,80000004 <loop>

80000008 <fail>:
80000008:	100002b7          	lui	t0,0x10000
8000000c:	00528303          	lb	t1,5(t0) # 10000005 <_start-0x6ffffffb>
80000010:	02037313          	andi	t1,t1,32
80000014:	fe030ae3          	beqz	t1,80000008 <fail>
80000018:	04600513          	li	a0,70
8000001c:	00a28023          	sb	a0,0(t0)
80000020:	fe0002e3          	beqz	zero,80000004 <loop>

80000024 <pass>:
80000024:	100002b7          	lui	t0,0x10000
80000028:	00528303          	lb	t1,5(t0) # 10000005 <_start-0x6ffffffb>
8000002c:	02037313          	andi	t1,t1,32
80000030:	fe030ae3          	beqz	t1,80000024 <pass>
80000034:	05000513          	li	a0,80
80000038:	00a28023          	sb	a0,0(t0)
8000003c:	fc0004e3          	beqz	zero,80000004 <loop>
80000040:	00000013          	nop
80000044:	00000013          	nop
80000048:	00000013          	nop

8000004c <reset_vector>:
8000004c:	00000093          	li	ra,0
80000050:	00000113          	li	sp,0
80000054:	00000193          	li	gp,0
80000058:	00000213          	li	tp,0
8000005c:	00000293          	li	t0,0
80000060:	00000313          	li	t1,0
80000064:	00000393          	li	t2,0
80000068:	00000413          	li	s0,0
8000006c:	00000493          	li	s1,0
80000070:	00000513          	li	a0,0
80000074:	00000593          	li	a1,0
80000078:	00000613          	li	a2,0
8000007c:	00000693          	li	a3,0
80000080:	00000713          	li	a4,0
80000084:	00000793          	li	a5,0
80000088:	00000813          	li	a6,0
8000008c:	00000893          	li	a7,0
80000090:	00000913          	li	s2,0
80000094:	00000993          	li	s3,0
80000098:	00000a13          	li	s4,0
8000009c:	00000a93          	li	s5,0
800000a0:	00000b13          	li	s6,0
800000a4:	00000b93          	li	s7,0
800000a8:	00000c13          	li	s8,0
800000ac:	00000c93          	li	s9,0
800000b0:	00000d13          	li	s10,0
800000b4:	00000d93          	li	s11,0
800000b8:	00000e13          	li	t3,0
800000bc:	00000e93          	li	t4,0
800000c0:	00000f13          	li	t5,0
800000c4:	00000f93          	li	t6,0

800000c8 <test_2>:
800000c8:	00200193          	li	gp,2
800000cc:	00000093          	li	ra,0
800000d0:	00000113          	li	sp,0
800000d4:	00208733          	add	a4,ra,sp
800000d8:	00000393          	li	t2,0
800000dc:	00770463          	beq	a4,t2,800000e4 <test_3>
800000e0:	f29ff06f          	j	80000008 <fail>

800000e4 <test_3>:
800000e4:	00300193          	li	gp,3
800000e8:	00100093          	li	ra,1
800000ec:	00100113          	li	sp,1
800000f0:	00208733          	add	a4,ra,sp
800000f4:	00200393          	li	t2,2
800000f8:	00770463          	beq	a4,t2,80000100 <test_4>
800000fc:	f0dff06f          	j	80000008 <fail>

80000100 <test_4>:
80000100:	00400193          	li	gp,4
80000104:	00300093          	li	ra,3
80000108:	00700113          	li	sp,7
8000010c:	00208733          	add	a4,ra,sp
80000110:	00a00393          	li	t2,10
80000114:	00770463          	beq	a4,t2,8000011c <test_5>
80000118:	ef1ff06f          	j	80000008 <fail>

8000011c <test_5>:
8000011c:	00500193          	li	gp,5
80000120:	00000093          	li	ra,0
80000124:	ffff8137          	lui	sp,0xffff8
80000128:	00208733          	add	a4,ra,sp
8000012c:	ffff83b7          	lui	t2,0xffff8
80000130:	00770463          	beq	a4,t2,80000138 <test_6>
80000134:	ed5ff06f          	j	80000008 <fail>

80000138 <test_6>:
80000138:	00600193          	li	gp,6
8000013c:	800000b7          	lui	ra,0x80000
80000140:	00000113          	li	sp,0
80000144:	00208733          	add	a4,ra,sp
80000148:	800003b7          	lui	t2,0x80000
8000014c:	00770463          	beq	a4,t2,80000154 <test_7>
80000150:	eb9ff06f          	j	80000008 <fail>

80000154 <test_7>:
80000154:	00700193          	li	gp,7
80000158:	800000b7          	lui	ra,0x80000
8000015c:	ffff8137          	lui	sp,0xffff8
80000160:	00208733          	add	a4,ra,sp
80000164:	7fff83b7          	lui	t2,0x7fff8
80000168:	00770463          	beq	a4,t2,80000170 <test_8>
8000016c:	e9dff06f          	j	80000008 <fail>

80000170 <test_8>:
80000170:	00800193          	li	gp,8
80000174:	00000093          	li	ra,0
80000178:	00008137          	lui	sp,0x8
8000017c:	fff10113          	addi	sp,sp,-1 # 7fff <_start-0x7fff8001>
80000180:	00208733          	add	a4,ra,sp
80000184:	000083b7          	lui	t2,0x8
80000188:	fff38393          	addi	t2,t2,-1 # 7fff <_start-0x7fff8001>
8000018c:	00770463          	beq	a4,t2,80000194 <test_9>
80000190:	e79ff06f          	j	80000008 <fail>

80000194 <test_9>:
80000194:	00900193          	li	gp,9
80000198:	800000b7          	lui	ra,0x80000
8000019c:	fff08093          	addi	ra,ra,-1 # 7fffffff <__global_pointer$+0xffffadb7>
800001a0:	00000113          	li	sp,0
800001a4:	00208733          	add	a4,ra,sp
800001a8:	800003b7          	lui	t2,0x80000
800001ac:	fff38393          	addi	t2,t2,-1 # 7fffffff <__global_pointer$+0xffffadb7>
800001b0:	00770463          	beq	a4,t2,800001b8 <test_10>
800001b4:	e55ff06f          	j	80000008 <fail>

800001b8 <test_10>:
800001b8:	00a00193          	li	gp,10
800001bc:	800000b7          	lui	ra,0x80000
800001c0:	fff08093          	addi	ra,ra,-1 # 7fffffff <__global_pointer$+0xffffadb7>
800001c4:	00008137          	lui	sp,0x8
800001c8:	fff10113          	addi	sp,sp,-1 # 7fff <_start-0x7fff8001>
800001cc:	00208733          	add	a4,ra,sp
800001d0:	800083b7          	lui	t2,0x80008
800001d4:	ffe38393          	addi	t2,t2,-2 # 80007ffe <__global_pointer$+0x2db6>
800001d8:	00770463          	beq	a4,t2,800001e0 <test_11>
800001dc:	e2dff06f          	j	80000008 <fail>

800001e0 <test_11>:
800001e0:	00b00193          	li	gp,11
800001e4:	800000b7          	lui	ra,0x80000
800001e8:	00008137          	lui	sp,0x8
800001ec:	fff10113          	addi	sp,sp,-1 # 7fff <_start-0x7fff8001>
800001f0:	00208733          	add	a4,ra,sp
800001f4:	800083b7          	lui	t2,0x80008
800001f8:	fff38393          	addi	t2,t2,-1 # 80007fff <__global_pointer$+0x2db7>
800001fc:	00770463          	beq	a4,t2,80000204 <test_12>
80000200:	e09ff06f          	j	80000008 <fail>

80000204 <test_12>:
80000204:	00c00193          	li	gp,12
80000208:	800000b7          	lui	ra,0x80000
8000020c:	fff08093          	addi	ra,ra,-1 # 7fffffff <__global_pointer$+0xffffadb7>
80000210:	ffff8137          	lui	sp,0xffff8
80000214:	00208733          	add	a4,ra,sp
80000218:	7fff83b7          	lui	t2,0x7fff8
8000021c:	fff38393          	addi	t2,t2,-1 # 7fff7fff <_start-0x8001>
80000220:	00770463          	beq	a4,t2,80000228 <test_13>
80000224:	de5ff06f          	j	80000008 <fail>

80000228 <test_13>:
80000228:	00d00193          	li	gp,13
8000022c:	00000093          	li	ra,0
80000230:	fff00113          	li	sp,-1
80000234:	00208733          	add	a4,ra,sp
80000238:	fff00393          	li	t2,-1
8000023c:	00770463          	beq	a4,t2,80000244 <test_14>
80000240:	dc9ff06f          	j	80000008 <fail>

80000244 <test_14>:
80000244:	00e00193          	li	gp,14
80000248:	fff00093          	li	ra,-1
8000024c:	00100113          	li	sp,1
80000250:	00208733          	add	a4,ra,sp
80000254:	00000393          	li	t2,0
80000258:	00770463          	beq	a4,t2,80000260 <test_15>
8000025c:	dadff06f          	j	80000008 <fail>

80000260 <test_15>:
80000260:	00f00193          	li	gp,15
80000264:	fff00093          	li	ra,-1
80000268:	fff00113          	li	sp,-1
8000026c:	00208733          	add	a4,ra,sp
80000270:	ffe00393          	li	t2,-2
80000274:	00770463          	beq	a4,t2,8000027c <test_16>
80000278:	d91ff06f          	j	80000008 <fail>

8000027c <test_16>:
8000027c:	01000193          	li	gp,16
80000280:	00100093          	li	ra,1
80000284:	80000137          	lui	sp,0x80000
80000288:	fff10113          	addi	sp,sp,-1 # 7fffffff <__global_pointer$+0xffffadb7>
8000028c:	00208733          	add	a4,ra,sp
80000290:	800003b7          	lui	t2,0x80000
80000294:	00770463          	beq	a4,t2,8000029c <test_17>
80000298:	d71ff06f          	j	80000008 <fail>

8000029c <test_17>:
8000029c:	01100193          	li	gp,17
800002a0:	00d00093          	li	ra,13
800002a4:	00b00113          	li	sp,11
800002a8:	002080b3          	add	ra,ra,sp
800002ac:	01800393          	li	t2,24
800002b0:	00708463          	beq	ra,t2,800002b8 <test_18>
800002b4:	d55ff06f          	j	80000008 <fail>

800002b8 <test_18>:
800002b8:	01200193          	li	gp,18
800002bc:	00e00093          	li	ra,14
800002c0:	00b00113          	li	sp,11
800002c4:	00208133          	add	sp,ra,sp
800002c8:	01900393          	li	t2,25
800002cc:	00710463          	beq	sp,t2,800002d4 <test_19>
800002d0:	d39ff06f          	j	80000008 <fail>

800002d4 <test_19>:
800002d4:	01300193          	li	gp,19
800002d8:	00d00093          	li	ra,13
800002dc:	001080b3          	add	ra,ra,ra
800002e0:	01a00393          	li	t2,26
800002e4:	00708463          	beq	ra,t2,800002ec <test_20>
800002e8:	d21ff06f          	j	80000008 <fail>

800002ec <test_20>:
800002ec:	01400193          	li	gp,20
800002f0:	00000213          	li	tp,0
800002f4:	00d00093          	li	ra,13
800002f8:	00b00113          	li	sp,11
800002fc:	00208733          	add	a4,ra,sp
80000300:	00070313          	mv	t1,a4
80000304:	00120213          	addi	tp,tp,1 # 1 <_start-0x7fffffff>
80000308:	00200293          	li	t0,2
8000030c:	fe5214e3          	bne	tp,t0,800002f4 <test_20+0x8>
80000310:	01800393          	li	t2,24
80000314:	00730463          	beq	t1,t2,8000031c <test_21>
80000318:	cf1ff06f          	j	80000008 <fail>

8000031c <test_21>:
8000031c:	01500193          	li	gp,21
80000320:	00000213          	li	tp,0
80000324:	00e00093          	li	ra,14
80000328:	00b00113          	li	sp,11
8000032c:	00208733          	add	a4,ra,sp
80000330:	00000013          	nop
80000334:	00070313          	mv	t1,a4
80000338:	00120213          	addi	tp,tp,1 # 1 <_start-0x7fffffff>
8000033c:	00200293          	li	t0,2
80000340:	fe5212e3          	bne	tp,t0,80000324 <test_21+0x8>
80000344:	01900393          	li	t2,25
80000348:	00730463          	beq	t1,t2,80000350 <test_22>
8000034c:	cbdff06f          	j	80000008 <fail>

80000350 <test_22>:
80000350:	01600193          	li	gp,22
80000354:	00000213          	li	tp,0
80000358:	00f00093          	li	ra,15
8000035c:	00b00113          	li	sp,11
80000360:	00208733          	add	a4,ra,sp
80000364:	00000013          	nop
80000368:	00000013          	nop
8000036c:	00070313          	mv	t1,a4
80000370:	00120213          	addi	tp,tp,1 # 1 <_start-0x7fffffff>
80000374:	00200293          	li	t0,2
80000378:	fe5210e3          	bne	tp,t0,80000358 <test_22+0x8>
8000037c:	01a00393          	li	t2,26
80000380:	00730463          	beq	t1,t2,80000388 <test_23>
80000384:	c85ff06f          	j	80000008 <fail>

80000388 <test_23>:
80000388:	01700193          	li	gp,23
8000038c:	00000213          	li	tp,0
80000390:	00d00093          	li	ra,13
80000394:	00b00113          	li	sp,11
80000398:	00208733          	add	a4,ra,sp
8000039c:	00120213          	addi	tp,tp,1 # 1 <_start-0x7fffffff>
800003a0:	00200293          	li	t0,2
800003a4:	fe5216e3          	bne	tp,t0,80000390 <test_23+0x8>
800003a8:	01800393          	li	t2,24
800003ac:	00770463          	beq	a4,t2,800003b4 <test_24>
800003b0:	c59ff06f          	j	80000008 <fail>

800003b4 <test_24>:
800003b4:	01800193          	li	gp,24
800003b8:	00000213          	li	tp,0
800003bc:	00e00093          	li	ra,14
800003c0:	00b00113          	li	sp,11
800003c4:	00000013          	nop
800003c8:	00208733          	add	a4,ra,sp
800003cc:	00120213          	addi	tp,tp,1 # 1 <_start-0x7fffffff>
800003d0:	00200293          	li	t0,2
800003d4:	fe5214e3          	bne	tp,t0,800003bc <test_24+0x8>
800003d8:	01900393          	li	t2,25
800003dc:	00770463          	beq	a4,t2,800003e4 <test_25>
800003e0:	c29ff06f          	j	80000008 <fail>

800003e4 <test_25>:
800003e4:	01900193          	li	gp,25
800003e8:	00000213          	li	tp,0
800003ec:	00f00093          	li	ra,15
800003f0:	00b00113          	li	sp,11
800003f4:	00000013          	nop
800003f8:	00000013          	nop
800003fc:	00208733          	add	a4,ra,sp
80000400:	00120213          	addi	tp,tp,1 # 1 <_start-0x7fffffff>
80000404:	00200293          	li	t0,2
80000408:	fe5212e3          	bne	tp,t0,800003ec <test_25+0x8>
8000040c:	01a00393          	li	t2,26
80000410:	00770463          	beq	a4,t2,80000418 <test_26>
80000414:	bf5ff06f          	j	80000008 <fail>

80000418 <test_26>:
80000418:	01a00193          	li	gp,26
8000041c:	00000213          	li	tp,0
80000420:	00d00093          	li	ra,13
80000424:	00000013          	nop
80000428:	00b00113          	li	sp,11
8000042c:	00208733          	add	a4,ra,sp
80000430:	00120213          	addi	tp,tp,1 # 1 <_start-0x7fffffff>
80000434:	00200293          	li	t0,2
80000438:	fe5214e3          	bne	tp,t0,80000420 <test_26+0x8>
8000043c:	01800393          	li	t2,24
80000440:	00770463          	beq	a4,t2,80000448 <test_27>
80000444:	bc5ff06f          	j	80000008 <fail>

80000448 <test_27>:
80000448:	01b00193          	li	gp,27
8000044c:	00000213          	li	tp,0
80000450:	00e00093          	li	ra,14
80000454:	00000013          	nop
80000458:	00b00113          	li	sp,11
8000045c:	00000013          	nop
80000460:	00208733          	add	a4,ra,sp
80000464:	00120213          	addi	tp,tp,1 # 1 <_start-0x7fffffff>
80000468:	00200293          	li	t0,2
8000046c:	fe5212e3          	bne	tp,t0,80000450 <test_27+0x8>
80000470:	01900393          	li	t2,25
80000474:	00770463          	beq	a4,t2,8000047c <test_28>
80000478:	b91ff06f          	j	80000008 <fail>

8000047c <test_28>:
8000047c:	01c00193          	li	gp,28
80000480:	00000213          	li	tp,0
80000484:	00f00093          	li	ra,15
80000488:	00000013          	nop
8000048c:	00000013          	nop
80000490:	00b00113          	li	sp,11
80000494:	00208733          	add	a4,ra,sp
80000498:	00120213          	addi	tp,tp,1 # 1 <_start-0x7fffffff>
8000049c:	00200293          	li	t0,2
800004a0:	fe5212e3          	bne	tp,t0,80000484 <test_28+0x8>
800004a4:	01a00393          	li	t2,26
800004a8:	00770463          	beq	a4,t2,800004b0 <test_29>
800004ac:	b5dff06f          	j	80000008 <fail>

800004b0 <test_29>:
800004b0:	01d00193          	li	gp,29
800004b4:	00000213          	li	tp,0
800004b8:	00b00113          	li	sp,11
800004bc:	00d00093          	li	ra,13
800004c0:	00208733          	add	a4,ra,sp
800004c4:	00120213          	addi	tp,tp,1 # 1 <_start-0x7fffffff>
800004c8:	00200293          	li	t0,2
800004cc:	fe5216e3          	bne	tp,t0,800004b8 <test_29+0x8>
800004d0:	01800393          	li	t2,24
800004d4:	00770463          	beq	a4,t2,800004dc <test_30>
800004d8:	b31ff06f          	j	80000008 <fail>

800004dc <test_30>:
800004dc:	01e00193          	li	gp,30
800004e0:	00000213          	li	tp,0
800004e4:	00b00113          	li	sp,11
800004e8:	00e00093          	li	ra,14
800004ec:	00000013          	nop
800004f0:	00208733          	add	a4,ra,sp
800004f4:	00120213          	addi	tp,tp,1 # 1 <_start-0x7fffffff>
800004f8:	00200293          	li	t0,2
800004fc:	fe5214e3          	bne	tp,t0,800004e4 <test_30+0x8>
80000500:	01900393          	li	t2,25
80000504:	00770463          	beq	a4,t2,8000050c <test_31>
80000508:	b01ff06f          	j	80000008 <fail>

8000050c <test_31>:
8000050c:	01f00193          	li	gp,31
80000510:	00000213          	li	tp,0
80000514:	00b00113          	li	sp,11
80000518:	00f00093          	li	ra,15
8000051c:	00000013          	nop
80000520:	00000013          	nop
80000524:	00208733          	add	a4,ra,sp
80000528:	00120213          	addi	tp,tp,1 # 1 <_start-0x7fffffff>
8000052c:	00200293          	li	t0,2
80000530:	fe5212e3          	bne	tp,t0,80000514 <test_31+0x8>
80000534:	01a00393          	li	t2,26
80000538:	00770463          	beq	a4,t2,80000540 <test_32>
8000053c:	acdff06f          	j	80000008 <fail>

80000540 <test_32>:
80000540:	02000193          	li	gp,32
80000544:	00000213          	li	tp,0
80000548:	00b00113          	li	sp,11
8000054c:	00000013          	nop
80000550:	00d00093          	li	ra,13
80000554:	00208733          	add	a4,ra,sp
80000558:	00120213          	addi	tp,tp,1 # 1 <_start-0x7fffffff>
8000055c:	00200293          	li	t0,2
80000560:	fe5214e3          	bne	tp,t0,80000548 <test_32+0x8>
80000564:	01800393          	li	t2,24
80000568:	00770463          	beq	a4,t2,80000570 <test_33>
8000056c:	a9dff06f          	j	80000008 <fail>

80000570 <test_33>:
80000570:	02100193          	li	gp,33
80000574:	00000213          	li	tp,0
80000578:	00b00113          	li	sp,11
8000057c:	00000013          	nop
80000580:	00e00093          	li	ra,14
80000584:	00000013          	nop
80000588:	00208733          	add	a4,ra,sp
8000058c:	00120213          	addi	tp,tp,1 # 1 <_start-0x7fffffff>
80000590:	00200293          	li	t0,2
80000594:	fe5212e3          	bne	tp,t0,80000578 <test_33+0x8>
80000598:	01900393          	li	t2,25
8000059c:	00770463          	beq	a4,t2,800005a4 <test_34>
800005a0:	a69ff06f          	j	80000008 <fail>

800005a4 <test_34>:
800005a4:	02200193          	li	gp,34
800005a8:	00000213          	li	tp,0
800005ac:	00b00113          	li	sp,11
800005b0:	00000013          	nop
800005b4:	00000013          	nop
800005b8:	00f00093          	li	ra,15
800005bc:	00208733          	add	a4,ra,sp
800005c0:	00120213          	addi	tp,tp,1 # 1 <_start-0x7fffffff>
800005c4:	00200293          	li	t0,2
800005c8:	fe5212e3          	bne	tp,t0,800005ac <test_34+0x8>
800005cc:	01a00393          	li	t2,26
800005d0:	00770463          	beq	a4,t2,800005d8 <test_35>
800005d4:	a35ff06f          	j	80000008 <fail>

800005d8 <test_35>:
800005d8:	02300193          	li	gp,35
800005dc:	00f00093          	li	ra,15
800005e0:	00100133          	add	sp,zero,ra
800005e4:	00f00393          	li	t2,15
800005e8:	00710463          	beq	sp,t2,800005f0 <test_36>
800005ec:	a1dff06f          	j	80000008 <fail>

800005f0 <test_36>:
800005f0:	02400193          	li	gp,36
800005f4:	02000093          	li	ra,32
800005f8:	00008133          	add	sp,ra,zero
800005fc:	02000393          	li	t2,32
80000600:	00710463          	beq	sp,t2,80000608 <test_37>
80000604:	a05ff06f          	j	80000008 <fail>

80000608 <test_37>:
80000608:	02500193          	li	gp,37
8000060c:	000000b3          	add	ra,zero,zero
80000610:	00000393          	li	t2,0
80000614:	00708463          	beq	ra,t2,8000061c <test_38>
80000618:	9f1ff06f          	j	80000008 <fail>

8000061c <test_38>:
8000061c:	02600193          	li	gp,38
80000620:	01000093          	li	ra,16
80000624:	01e00113          	li	sp,30
80000628:	00208033          	add	zero,ra,sp
8000062c:	00000393          	li	t2,0
80000630:	00700463          	beq	zero,t2,80000638 <test_102>
80000634:	9d5ff06f          	j	80000008 <fail>

80000638 <test_102>:
80000638:	06600193          	li	gp,102
8000063c:	00000093          	li	ra,0
80000640:	00008713          	mv	a4,ra
80000644:	00000393          	li	t2,0
80000648:	00770463          	beq	a4,t2,80000650 <test_103>
8000064c:	9bdff06f          	j	80000008 <fail>

80000650 <test_103>:
80000650:	06700193          	li	gp,103
80000654:	00100093          	li	ra,1
80000658:	00108713          	addi	a4,ra,1
8000065c:	00200393          	li	t2,2
80000660:	00770463          	beq	a4,t2,80000668 <test_104>
80000664:	9a5ff06f          	j	80000008 <fail>

80000668 <test_104>:
80000668:	06800193          	li	gp,104
8000066c:	00300093          	li	ra,3
80000670:	00708713          	addi	a4,ra,7
80000674:	00a00393          	li	t2,10
80000678:	00770463          	beq	a4,t2,80000680 <test_105>
8000067c:	98dff06f          	j	80000008 <fail>

80000680 <test_105>:
80000680:	06900193          	li	gp,105
80000684:	00000093          	li	ra,0
80000688:	80008713          	addi	a4,ra,-2048
8000068c:	80000393          	li	t2,-2048
80000690:	00770463          	beq	a4,t2,80000698 <test_106>
80000694:	975ff06f          	j	80000008 <fail>

80000698 <test_106>:
80000698:	06a00193          	li	gp,106
8000069c:	800000b7          	lui	ra,0x80000
800006a0:	00008713          	mv	a4,ra
800006a4:	800003b7          	lui	t2,0x80000
800006a8:	00770463          	beq	a4,t2,800006b0 <test_107>
800006ac:	95dff06f          	j	80000008 <fail>

800006b0 <test_107>:
800006b0:	06b00193          	li	gp,107
800006b4:	800000b7          	lui	ra,0x80000
800006b8:	80008713          	addi	a4,ra,-2048 # 7ffff800 <__global_pointer$+0xffffa5b8>
800006bc:	800003b7          	lui	t2,0x80000
800006c0:	80038393          	addi	t2,t2,-2048 # 7ffff800 <__global_pointer$+0xffffa5b8>
800006c4:	00770463          	beq	a4,t2,800006cc <test_108>
800006c8:	941ff06f          	j	80000008 <fail>

800006cc <test_108>:
800006cc:	06c00193          	li	gp,108
800006d0:	00000093          	li	ra,0
800006d4:	7ff08713          	addi	a4,ra,2047
800006d8:	7ff00393          	li	t2,2047
800006dc:	00770463          	beq	a4,t2,800006e4 <test_109>
800006e0:	929ff06f          	j	80000008 <fail>

800006e4 <test_109>:
800006e4:	06d00193          	li	gp,109
800006e8:	800000b7          	lui	ra,0x80000
800006ec:	fff08093          	addi	ra,ra,-1 # 7fffffff <__global_pointer$+0xffffadb7>
800006f0:	00008713          	mv	a4,ra
800006f4:	800003b7          	lui	t2,0x80000
800006f8:	fff38393          	addi	t2,t2,-1 # 7fffffff <__global_pointer$+0xffffadb7>
800006fc:	00770463          	beq	a4,t2,80000704 <test_110>
80000700:	909ff06f          	j	80000008 <fail>

80000704 <test_110>:
80000704:	06e00193          	li	gp,110
80000708:	800000b7          	lui	ra,0x80000
8000070c:	fff08093          	addi	ra,ra,-1 # 7fffffff <__global_pointer$+0xffffadb7>
80000710:	7ff08713          	addi	a4,ra,2047
80000714:	800003b7          	lui	t2,0x80000
80000718:	7fe38393          	addi	t2,t2,2046 # 800007fe <__global_pointer$+0xffffb5b6>
8000071c:	00770463          	beq	a4,t2,80000724 <test_111>
80000720:	8e9ff06f          	j	80000008 <fail>

80000724 <test_111>:
80000724:	06f00193          	li	gp,111
80000728:	800000b7          	lui	ra,0x80000
8000072c:	7ff08713          	addi	a4,ra,2047 # 800007ff <__global_pointer$+0xffffb5b7>
80000730:	800003b7          	lui	t2,0x80000
80000734:	7ff38393          	addi	t2,t2,2047 # 800007ff <__global_pointer$+0xffffb5b7>
80000738:	00770463          	beq	a4,t2,80000740 <test_112>
8000073c:	8cdff06f          	j	80000008 <fail>

80000740 <test_112>:
80000740:	07000193          	li	gp,112
80000744:	800000b7          	lui	ra,0x80000
80000748:	fff08093          	addi	ra,ra,-1 # 7fffffff <__global_pointer$+0xffffadb7>
8000074c:	80008713          	addi	a4,ra,-2048
80000750:	7ffff3b7          	lui	t2,0x7ffff
80000754:	7ff38393          	addi	t2,t2,2047 # 7ffff7ff <_start-0x801>
80000758:	00770463          	beq	a4,t2,80000760 <test_113>
8000075c:	8adff06f          	j	80000008 <fail>

80000760 <test_113>:
80000760:	07100193          	li	gp,113
80000764:	00000093          	li	ra,0
80000768:	fff08713          	addi	a4,ra,-1
8000076c:	fff00393          	li	t2,-1
80000770:	00770463          	beq	a4,t2,80000778 <test_114>
80000774:	895ff06f          	j	80000008 <fail>

80000778 <test_114>:
80000778:	07200193          	li	gp,114
8000077c:	fff00093          	li	ra,-1
80000780:	00108713          	addi	a4,ra,1
80000784:	00000393          	li	t2,0
80000788:	00770463          	beq	a4,t2,80000790 <test_115>
8000078c:	87dff06f          	j	80000008 <fail>

80000790 <test_115>:
80000790:	07300193          	li	gp,115
80000794:	fff00093          	li	ra,-1
80000798:	fff08713          	addi	a4,ra,-1
8000079c:	ffe00393          	li	t2,-2
800007a0:	00770463          	beq	a4,t2,800007a8 <test_116>
800007a4:	865ff06f          	j	80000008 <fail>

800007a8 <test_116>:
800007a8:	07400193          	li	gp,116
800007ac:	800000b7          	lui	ra,0x80000
800007b0:	fff08093          	addi	ra,ra,-1 # 7fffffff <__global_pointer$+0xffffadb7>
800007b4:	00108713          	addi	a4,ra,1
800007b8:	800003b7          	lui	t2,0x80000
800007bc:	00770463          	beq	a4,t2,800007c4 <test_117>
800007c0:	849ff06f          	j	80000008 <fail>

800007c4 <test_117>:
800007c4:	07500193          	li	gp,117
800007c8:	00d00093          	li	ra,13
800007cc:	00b08093          	addi	ra,ra,11
800007d0:	01800393          	li	t2,24
800007d4:	00708463          	beq	ra,t2,800007dc <test_118>
800007d8:	831ff06f          	j	80000008 <fail>

800007dc <test_118>:
800007dc:	07600193          	li	gp,118
800007e0:	00000213          	li	tp,0
800007e4:	00d00093          	li	ra,13
800007e8:	00b08713          	addi	a4,ra,11
800007ec:	00070313          	mv	t1,a4
800007f0:	00120213          	addi	tp,tp,1 # 1 <_start-0x7fffffff>
800007f4:	00200293          	li	t0,2
800007f8:	fe5216e3          	bne	tp,t0,800007e4 <test_118+0x8>
800007fc:	01800393          	li	t2,24
80000800:	00730463          	beq	t1,t2,80000808 <test_119>
80000804:	805ff06f          	j	80000008 <fail>

80000808 <test_119>:
80000808:	07700193          	li	gp,119
8000080c:	00000213          	li	tp,0
80000810:	00d00093          	li	ra,13
80000814:	00a08713          	addi	a4,ra,10
80000818:	00000013          	nop
8000081c:	00070313          	mv	t1,a4
80000820:	00120213          	addi	tp,tp,1 # 1 <_start-0x7fffffff>
80000824:	00200293          	li	t0,2
80000828:	fe5214e3          	bne	tp,t0,80000810 <test_119+0x8>
8000082c:	01700393          	li	t2,23
80000830:	00730463          	beq	t1,t2,80000838 <test_120>
80000834:	fd4ff06f          	j	80000008 <fail>

80000838 <test_120>:
80000838:	07800193          	li	gp,120
8000083c:	00000213          	li	tp,0
80000840:	00d00093          	li	ra,13
80000844:	00908713          	addi	a4,ra,9
80000848:	00000013          	nop
8000084c:	00000013          	nop
80000850:	00070313          	mv	t1,a4
80000854:	00120213          	addi	tp,tp,1 # 1 <_start-0x7fffffff>
80000858:	00200293          	li	t0,2
8000085c:	fe5212e3          	bne	tp,t0,80000840 <test_120+0x8>
80000860:	01600393          	li	t2,22
80000864:	00730463          	beq	t1,t2,8000086c <test_121>
80000868:	fa0ff06f          	j	80000008 <fail>

8000086c <test_121>:
8000086c:	07900193          	li	gp,121
80000870:	00000213          	li	tp,0
80000874:	00d00093          	li	ra,13
80000878:	00b08713          	addi	a4,ra,11
8000087c:	00120213          	addi	tp,tp,1 # 1 <_start-0x7fffffff>
80000880:	00200293          	li	t0,2
80000884:	fe5218e3          	bne	tp,t0,80000874 <test_121+0x8>
80000888:	01800393          	li	t2,24
8000088c:	00770463          	beq	a4,t2,80000894 <test_122>
80000890:	f78ff06f          	j	80000008 <fail>

80000894 <test_122>:
80000894:	07a00193          	li	gp,122
80000898:	00000213          	li	tp,0
8000089c:	00d00093          	li	ra,13
800008a0:	00000013          	nop
800008a4:	00a08713          	addi	a4,ra,10
800008a8:	00120213          	addi	tp,tp,1 # 1 <_start-0x7fffffff>
800008ac:	00200293          	li	t0,2
800008b0:	fe5216e3          	bne	tp,t0,8000089c <test_122+0x8>
800008b4:	01700393          	li	t2,23
800008b8:	00770463          	beq	a4,t2,800008c0 <test_123>
800008bc:	f4cff06f          	j	80000008 <fail>

800008c0 <test_123>:
800008c0:	07b00193          	li	gp,123
800008c4:	00000213          	li	tp,0
800008c8:	00d00093          	li	ra,13
800008cc:	00000013          	nop
800008d0:	00000013          	nop
800008d4:	00908713          	addi	a4,ra,9
800008d8:	00120213          	addi	tp,tp,1 # 1 <_start-0x7fffffff>
800008dc:	00200293          	li	t0,2
800008e0:	fe5214e3          	bne	tp,t0,800008c8 <test_123+0x8>
800008e4:	01600393          	li	t2,22
800008e8:	00770463          	beq	a4,t2,800008f0 <test_124>
800008ec:	f1cff06f          	j	80000008 <fail>

800008f0 <test_124>:
800008f0:	07c00193          	li	gp,124
800008f4:	02000093          	li	ra,32
800008f8:	02000393          	li	t2,32
800008fc:	00708463          	beq	ra,t2,80000904 <test_125>
80000900:	f08ff06f          	j	80000008 <fail>

80000904 <test_125>:
80000904:	07d00193          	li	gp,125
80000908:	02100093          	li	ra,33
8000090c:	03208013          	addi	zero,ra,50
80000910:	00000393          	li	t2,0
80000914:	00700463          	beq	zero,t2,8000091c <test_202>
80000918:	ef0ff06f          	j	80000008 <fail>

8000091c <test_202>:
8000091c:	0ca00193          	li	gp,202
80000920:	ff0100b7          	lui	ra,0xff010
80000924:	f0008093          	addi	ra,ra,-256 # ff00ff00 <__global_pointer$+0x7f00acb8>
80000928:	0f0f1137          	lui	sp,0xf0f1
8000092c:	f0f10113          	addi	sp,sp,-241 # f0f0f0f <_start-0x70f0f0f1>
80000930:	0020f733          	and	a4,ra,sp
80000934:	0f0013b7          	lui	t2,0xf001
80000938:	f0038393          	addi	t2,t2,-256 # f000f00 <_start-0x70fff100>
8000093c:	00770463          	beq	a4,t2,80000944 <test_203>
80000940:	ec8ff06f          	j	80000008 <fail>

80000944 <test_203>:
80000944:	0cb00193          	li	gp,203
80000948:	0ff010b7          	lui	ra,0xff01
8000094c:	ff008093          	addi	ra,ra,-16 # ff00ff0 <_start-0x700ff010>
80000950:	f0f0f137          	lui	sp,0xf0f0f
80000954:	0f010113          	addi	sp,sp,240 # f0f0f0f0 <__global_pointer$+0x70f09ea8>
80000958:	0020f733          	and	a4,ra,sp
8000095c:	00f003b7          	lui	t2,0xf00
80000960:	0f038393          	addi	t2,t2,240 # f000f0 <_start-0x7f0fff10>
80000964:	00770463          	beq	a4,t2,8000096c <test_204>
80000968:	ea0ff06f          	j	80000008 <fail>

8000096c <test_204>:
8000096c:	0cc00193          	li	gp,204
80000970:	00ff00b7          	lui	ra,0xff0
80000974:	0ff08093          	addi	ra,ra,255 # ff00ff <_start-0x7f00ff01>
80000978:	0f0f1137          	lui	sp,0xf0f1
8000097c:	f0f10113          	addi	sp,sp,-241 # f0f0f0f <_start-0x70f0f0f1>
80000980:	0020f733          	and	a4,ra,sp
80000984:	000f03b7          	lui	t2,0xf0
80000988:	00f38393          	addi	t2,t2,15 # f000f <_start-0x7ff0fff1>
8000098c:	00770463          	beq	a4,t2,80000994 <test_205>
80000990:	e78ff06f          	j	80000008 <fail>

80000994 <test_205>:
80000994:	0cd00193          	li	gp,205
80000998:	f00ff0b7          	lui	ra,0xf00ff
8000099c:	00f08093          	addi	ra,ra,15 # f00ff00f <__global_pointer$+0x700f9dc7>
800009a0:	f0f0f137          	lui	sp,0xf0f0f
800009a4:	0f010113          	addi	sp,sp,240 # f0f0f0f0 <__global_pointer$+0x70f09ea8>
800009a8:	0020f733          	and	a4,ra,sp
800009ac:	f000f3b7          	lui	t2,0xf000f
800009b0:	00770463          	beq	a4,t2,800009b8 <test_206>
800009b4:	e54ff06f          	j	80000008 <fail>

800009b8 <test_206>:
800009b8:	0ce00193          	li	gp,206
800009bc:	ff0100b7          	lui	ra,0xff010
800009c0:	f0008093          	addi	ra,ra,-256 # ff00ff00 <__global_pointer$+0x7f00acb8>
800009c4:	0f0f1137          	lui	sp,0xf0f1
800009c8:	f0f10113          	addi	sp,sp,-241 # f0f0f0f <_start-0x70f0f0f1>
800009cc:	0020f0b3          	and	ra,ra,sp
800009d0:	0f0013b7          	lui	t2,0xf001
800009d4:	f0038393          	addi	t2,t2,-256 # f000f00 <_start-0x70fff100>
800009d8:	00708463          	beq	ra,t2,800009e0 <test_207>
800009dc:	e2cff06f          	j	80000008 <fail>

800009e0 <test_207>:
800009e0:	0cf00193          	li	gp,207
800009e4:	0ff010b7          	lui	ra,0xff01
800009e8:	ff008093          	addi	ra,ra,-16 # ff00ff0 <_start-0x700ff010>
800009ec:	f0f0f137          	lui	sp,0xf0f0f
800009f0:	0f010113          	addi	sp,sp,240 # f0f0f0f0 <__global_pointer$+0x70f09ea8>
800009f4:	0020f133          	and	sp,ra,sp
800009f8:	00f003b7          	lui	t2,0xf00
800009fc:	0f038393          	addi	t2,t2,240 # f000f0 <_start-0x7f0fff10>
80000a00:	00710463          	beq	sp,t2,80000a08 <test_208>
80000a04:	e04ff06f          	j	80000008 <fail>

80000a08 <test_208>:
80000a08:	0d000193          	li	gp,208
80000a0c:	ff0100b7          	lui	ra,0xff010
80000a10:	f0008093          	addi	ra,ra,-256 # ff00ff00 <__global_pointer$+0x7f00acb8>
80000a14:	0010f0b3          	and	ra,ra,ra
80000a18:	ff0103b7          	lui	t2,0xff010
80000a1c:	f0038393          	addi	t2,t2,-256 # ff00ff00 <__global_pointer$+0x7f00acb8>
80000a20:	00708463          	beq	ra,t2,80000a28 <test_209>
80000a24:	de4ff06f          	j	80000008 <fail>

80000a28 <test_209>:
80000a28:	0d100193          	li	gp,209
80000a2c:	00000213          	li	tp,0
80000a30:	ff0100b7          	lui	ra,0xff010
80000a34:	f0008093          	addi	ra,ra,-256 # ff00ff00 <__global_pointer$+0x7f00acb8>
80000a38:	0f0f1137          	lui	sp,0xf0f1
80000a3c:	f0f10113          	addi	sp,sp,-241 # f0f0f0f <_start-0x70f0f0f1>
80000a40:	0020f733          	and	a4,ra,sp
80000a44:	00070313          	mv	t1,a4
80000a48:	00120213          	addi	tp,tp,1 # 1 <_start-0x7fffffff>
80000a4c:	00200293          	li	t0,2
80000a50:	fe5210e3          	bne	tp,t0,80000a30 <test_209+0x8>
80000a54:	0f0013b7          	lui	t2,0xf001
80000a58:	f0038393          	addi	t2,t2,-256 # f000f00 <_start-0x70fff100>
80000a5c:	00730463          	beq	t1,t2,80000a64 <test_210>
80000a60:	da8ff06f          	j	80000008 <fail>

80000a64 <test_210>:
80000a64:	0d200193          	li	gp,210
80000a68:	00000213          	li	tp,0
80000a6c:	0ff010b7          	lui	ra,0xff01
80000a70:	ff008093          	addi	ra,ra,-16 # ff00ff0 <_start-0x700ff010>
80000a74:	f0f0f137          	lui	sp,0xf0f0f
80000a78:	0f010113          	addi	sp,sp,240 # f0f0f0f0 <__global_pointer$+0x70f09ea8>
80000a7c:	0020f733          	and	a4,ra,sp
80000a80:	00000013          	nop
80000a84:	00070313          	mv	t1,a4
80000a88:	00120213          	addi	tp,tp,1 # 1 <_start-0x7fffffff>
80000a8c:	00200293          	li	t0,2
80000a90:	fc521ee3          	bne	tp,t0,80000a6c <test_210+0x8>
80000a94:	00f003b7          	lui	t2,0xf00
80000a98:	0f038393          	addi	t2,t2,240 # f000f0 <_start-0x7f0fff10>
80000a9c:	00730463          	beq	t1,t2,80000aa4 <test_211>
80000aa0:	d68ff06f          	j	80000008 <fail>

80000aa4 <test_211>:
80000aa4:	0d300193          	li	gp,211
80000aa8:	00000213          	li	tp,0
80000aac:	00ff00b7          	lui	ra,0xff0
80000ab0:	0ff08093          	addi	ra,ra,255 # ff00ff <_start-0x7f00ff01>
80000ab4:	0f0f1137          	lui	sp,0xf0f1
80000ab8:	f0f10113          	addi	sp,sp,-241 # f0f0f0f <_start-0x70f0f0f1>
80000abc:	0020f733          	and	a4,ra,sp
80000ac0:	00000013          	nop
80000ac4:	00000013          	nop
80000ac8:	00070313          	mv	t1,a4
80000acc:	00120213          	addi	tp,tp,1 # 1 <_start-0x7fffffff>
80000ad0:	00200293          	li	t0,2
80000ad4:	fc521ce3          	bne	tp,t0,80000aac <test_211+0x8>
80000ad8:	000f03b7          	lui	t2,0xf0
80000adc:	00f38393          	addi	t2,t2,15 # f000f <_start-0x7ff0fff1>
80000ae0:	00730463          	beq	t1,t2,80000ae8 <test_212>
80000ae4:	d24ff06f          	j	80000008 <fail>

80000ae8 <test_212>:
80000ae8:	0d400193          	li	gp,212
80000aec:	00000213          	li	tp,0
80000af0:	ff0100b7          	lui	ra,0xff010
80000af4:	f0008093          	addi	ra,ra,-256 # ff00ff00 <__global_pointer$+0x7f00acb8>
80000af8:	0f0f1137          	lui	sp,0xf0f1
80000afc:	f0f10113          	addi	sp,sp,-241 # f0f0f0f <_start-0x70f0f0f1>
80000b00:	0020f733          	and	a4,ra,sp
80000b04:	00120213          	addi	tp,tp,1 # 1 <_start-0x7fffffff>
80000b08:	00200293          	li	t0,2
80000b0c:	fe5212e3          	bne	tp,t0,80000af0 <test_212+0x8>
80000b10:	0f0013b7          	lui	t2,0xf001
80000b14:	f0038393          	addi	t2,t2,-256 # f000f00 <_start-0x70fff100>
80000b18:	00770463          	beq	a4,t2,80000b20 <test_213>
80000b1c:	cecff06f          	j	80000008 <fail>

80000b20 <test_213>:
80000b20:	0d500193          	li	gp,213
80000b24:	00000213          	li	tp,0
80000b28:	0ff010b7          	lui	ra,0xff01
80000b2c:	ff008093          	addi	ra,ra,-16 # ff00ff0 <_start-0x700ff010>
80000b30:	f0f0f137          	lui	sp,0xf0f0f
80000b34:	0f010113          	addi	sp,sp,240 # f0f0f0f0 <__global_pointer$+0x70f09ea8>
80000b38:	00000013          	nop
80000b3c:	0020f733          	and	a4,ra,sp
80000b40:	00120213          	addi	tp,tp,1 # 1 <_start-0x7fffffff>
80000b44:	00200293          	li	t0,2
80000b48:	fe5210e3          	bne	tp,t0,80000b28 <test_213+0x8>
80000b4c:	00f003b7          	lui	t2,0xf00
80000b50:	0f038393          	addi	t2,t2,240 # f000f0 <_start-0x7f0fff10>
80000b54:	00770463          	beq	a4,t2,80000b5c <test_214>
80000b58:	cb0ff06f          	j	80000008 <fail>

80000b5c <test_214>:
80000b5c:	0d600193          	li	gp,214
80000b60:	00000213          	li	tp,0
80000b64:	00ff00b7          	lui	ra,0xff0
80000b68:	0ff08093          	addi	ra,ra,255 # ff00ff <_start-0x7f00ff01>
80000b6c:	0f0f1137          	lui	sp,0xf0f1
80000b70:	f0f10113          	addi	sp,sp,-241 # f0f0f0f <_start-0x70f0f0f1>
80000b74:	00000013          	nop
80000b78:	00000013          	nop
80000b7c:	0020f733          	and	a4,ra,sp
80000b80:	00120213          	addi	tp,tp,1 # 1 <_start-0x7fffffff>
80000b84:	00200293          	li	t0,2
80000b88:	fc521ee3          	bne	tp,t0,80000b64 <test_214+0x8>
80000b8c:	000f03b7          	lui	t2,0xf0
80000b90:	00f38393          	addi	t2,t2,15 # f000f <_start-0x7ff0fff1>
80000b94:	00770463          	beq	a4,t2,80000b9c <test_215>
80000b98:	c70ff06f          	j	80000008 <fail>

80000b9c <test_215>:
80000b9c:	0d700193          	li	gp,215
80000ba0:	00000213          	li	tp,0
80000ba4:	ff0100b7          	lui	ra,0xff010
80000ba8:	f0008093          	addi	ra,ra,-256 # ff00ff00 <__global_pointer$+0x7f00acb8>
80000bac:	00000013          	nop
80000bb0:	0f0f1137          	lui	sp,0xf0f1
80000bb4:	f0f10113          	addi	sp,sp,-241 # f0f0f0f <_start-0x70f0f0f1>
80000bb8:	0020f733          	and	a4,ra,sp
80000bbc:	00120213          	addi	tp,tp,1 # 1 <_start-0x7fffffff>
80000bc0:	00200293          	li	t0,2
80000bc4:	fe5210e3          	bne	tp,t0,80000ba4 <test_215+0x8>
80000bc8:	0f0013b7          	lui	t2,0xf001
80000bcc:	f0038393          	addi	t2,t2,-256 # f000f00 <_start-0x70fff100>
80000bd0:	00770463          	beq	a4,t2,80000bd8 <test_216>
80000bd4:	c34ff06f          	j	80000008 <fail>

80000bd8 <test_216>:
80000bd8:	0d800193          	li	gp,216
80000bdc:	00000213          	li	tp,0
80000be0:	0ff010b7          	lui	ra,0xff01
80000be4:	ff008093          	addi	ra,ra,-16 # ff00ff0 <_start-0x700ff010>
80000be8:	00000013          	nop
80000bec:	f0f0f137          	lui	sp,0xf0f0f
80000bf0:	0f010113          	addi	sp,sp,240 # f0f0f0f0 <__global_pointer$+0x70f09ea8>
80000bf4:	00000013          	nop
80000bf8:	0020f733          	and	a4,ra,sp
80000bfc:	00120213          	addi	tp,tp,1 # 1 <_start-0x7fffffff>
80000c00:	00200293          	li	t0,2
80000c04:	fc521ee3          	bne	tp,t0,80000be0 <test_216+0x8>
80000c08:	00f003b7          	lui	t2,0xf00
80000c0c:	0f038393          	addi	t2,t2,240 # f000f0 <_start-0x7f0fff10>
80000c10:	00770463          	beq	a4,t2,80000c18 <test_217>
80000c14:	bf4ff06f          	j	80000008 <fail>

80000c18 <test_217>:
80000c18:	0d900193          	li	gp,217
80000c1c:	00000213          	li	tp,0
80000c20:	00ff00b7          	lui	ra,0xff0
80000c24:	0ff08093          	addi	ra,ra,255 # ff00ff <_start-0x7f00ff01>
80000c28:	00000013          	nop
80000c2c:	00000013          	nop
80000c30:	0f0f1137          	lui	sp,0xf0f1
80000c34:	f0f10113          	addi	sp,sp,-241 # f0f0f0f <_start-0x70f0f0f1>
80000c38:	0020f733          	and	a4,ra,sp
80000c3c:	00120213          	addi	tp,tp,1 # 1 <_start-0x7fffffff>
80000c40:	00200293          	li	t0,2
80000c44:	fc521ee3          	bne	tp,t0,80000c20 <test_217+0x8>
80000c48:	000f03b7          	lui	t2,0xf0
80000c4c:	00f38393          	addi	t2,t2,15 # f000f <_start-0x7ff0fff1>
80000c50:	00770463          	beq	a4,t2,80000c58 <test_218>
80000c54:	bb4ff06f          	j	80000008 <fail>

80000c58 <test_218>:
80000c58:	0da00193          	li	gp,218
80000c5c:	00000213          	li	tp,0
80000c60:	0f0f1137          	lui	sp,0xf0f1
80000c64:	f0f10113          	addi	sp,sp,-241 # f0f0f0f <_start-0x70f0f0f1>
80000c68:	ff0100b7          	lui	ra,0xff010
80000c6c:	f0008093          	addi	ra,ra,-256 # ff00ff00 <__global_pointer$+0x7f00acb8>
80000c70:	0020f733          	and	a4,ra,sp
80000c74:	00120213          	addi	tp,tp,1 # 1 <_start-0x7fffffff>
80000c78:	00200293          	li	t0,2
80000c7c:	fe5212e3          	bne	tp,t0,80000c60 <test_218+0x8>
80000c80:	0f0013b7          	lui	t2,0xf001
80000c84:	f0038393          	addi	t2,t2,-256 # f000f00 <_start-0x70fff100>
80000c88:	00770463          	beq	a4,t2,80000c90 <test_219>
80000c8c:	b7cff06f          	j	80000008 <fail>

80000c90 <test_219>:
80000c90:	0db00193          	li	gp,219
80000c94:	00000213          	li	tp,0
80000c98:	f0f0f137          	lui	sp,0xf0f0f
80000c9c:	0f010113          	addi	sp,sp,240 # f0f0f0f0 <__global_pointer$+0x70f09ea8>
80000ca0:	0ff010b7          	lui	ra,0xff01
80000ca4:	ff008093          	addi	ra,ra,-16 # ff00ff0 <_start-0x700ff010>
80000ca8:	00000013          	nop
80000cac:	0020f733          	and	a4,ra,sp
80000cb0:	00120213          	addi	tp,tp,1 # 1 <_start-0x7fffffff>
80000cb4:	00200293          	li	t0,2
80000cb8:	fe5210e3          	bne	tp,t0,80000c98 <test_219+0x8>
80000cbc:	00f003b7          	lui	t2,0xf00
80000cc0:	0f038393          	addi	t2,t2,240 # f000f0 <_start-0x7f0fff10>
80000cc4:	00770463          	beq	a4,t2,80000ccc <test_220>
80000cc8:	b40ff06f          	j	80000008 <fail>

80000ccc <test_220>:
80000ccc:	0dc00193          	li	gp,220
80000cd0:	00000213          	li	tp,0
80000cd4:	0f0f1137          	lui	sp,0xf0f1
80000cd8:	f0f10113          	addi	sp,sp,-241 # f0f0f0f <_start-0x70f0f0f1>
80000cdc:	00ff00b7          	lui	ra,0xff0
80000ce0:	0ff08093          	addi	ra,ra,255 # ff00ff <_start-0x7f00ff01>
80000ce4:	00000013          	nop
80000ce8:	00000013          	nop
80000cec:	0020f733          	and	a4,ra,sp
80000cf0:	00120213          	addi	tp,tp,1 # 1 <_start-0x7fffffff>
80000cf4:	00200293          	li	t0,2
80000cf8:	fc521ee3          	bne	tp,t0,80000cd4 <test_220+0x8>
80000cfc:	000f03b7          	lui	t2,0xf0
80000d00:	00f38393          	addi	t2,t2,15 # f000f <_start-0x7ff0fff1>
80000d04:	00770463          	beq	a4,t2,80000d0c <test_221>
80000d08:	b00ff06f          	j	80000008 <fail>

80000d0c <test_221>:
80000d0c:	0dd00193          	li	gp,221
80000d10:	00000213          	li	tp,0
80000d14:	0f0f1137          	lui	sp,0xf0f1
80000d18:	f0f10113          	addi	sp,sp,-241 # f0f0f0f <_start-0x70f0f0f1>
80000d1c:	00000013          	nop
80000d20:	ff0100b7          	lui	ra,0xff010
80000d24:	f0008093          	addi	ra,ra,-256 # ff00ff00 <__global_pointer$+0x7f00acb8>
80000d28:	0020f733          	and	a4,ra,sp
80000d2c:	00120213          	addi	tp,tp,1 # 1 <_start-0x7fffffff>
80000d30:	00200293          	li	t0,2
80000d34:	fe5210e3          	bne	tp,t0,80000d14 <test_221+0x8>
80000d38:	0f0013b7          	lui	t2,0xf001
80000d3c:	f0038393          	addi	t2,t2,-256 # f000f00 <_start-0x70fff100>
80000d40:	00770463          	beq	a4,t2,80000d48 <test_222>
80000d44:	ac4ff06f          	j	80000008 <fail>

80000d48 <test_222>:
80000d48:	0de00193          	li	gp,222
80000d4c:	00000213          	li	tp,0
80000d50:	f0f0f137          	lui	sp,0xf0f0f
80000d54:	0f010113          	addi	sp,sp,240 # f0f0f0f0 <__global_pointer$+0x70f09ea8>
80000d58:	00000013          	nop
80000d5c:	0ff010b7          	lui	ra,0xff01
80000d60:	ff008093          	addi	ra,ra,-16 # ff00ff0 <_start-0x700ff010>
80000d64:	00000013          	nop
80000d68:	0020f733          	and	a4,ra,sp
80000d6c:	00120213          	addi	tp,tp,1 # 1 <_start-0x7fffffff>
80000d70:	00200293          	li	t0,2
80000d74:	fc521ee3          	bne	tp,t0,80000d50 <test_222+0x8>
80000d78:	00f003b7          	lui	t2,0xf00
80000d7c:	0f038393          	addi	t2,t2,240 # f000f0 <_start-0x7f0fff10>
80000d80:	00770463          	beq	a4,t2,80000d88 <test_223>
80000d84:	a84ff06f          	j	80000008 <fail>

80000d88 <test_223>:
80000d88:	0df00193          	li	gp,223
80000d8c:	00000213          	li	tp,0
80000d90:	0f0f1137          	lui	sp,0xf0f1
80000d94:	f0f10113          	addi	sp,sp,-241 # f0f0f0f <_start-0x70f0f0f1>
80000d98:	00000013          	nop
80000d9c:	00000013          	nop
80000da0:	00ff00b7          	lui	ra,0xff0
80000da4:	0ff08093          	addi	ra,ra,255 # ff00ff <_start-0x7f00ff01>
80000da8:	0020f733          	and	a4,ra,sp
80000dac:	00120213          	addi	tp,tp,1 # 1 <_start-0x7fffffff>
80000db0:	00200293          	li	t0,2
80000db4:	fc521ee3          	bne	tp,t0,80000d90 <test_223+0x8>
80000db8:	000f03b7          	lui	t2,0xf0
80000dbc:	00f38393          	addi	t2,t2,15 # f000f <_start-0x7ff0fff1>
80000dc0:	00770463          	beq	a4,t2,80000dc8 <test_224>
80000dc4:	a44ff06f          	j	80000008 <fail>

80000dc8 <test_224>:
80000dc8:	0e000193          	li	gp,224
80000dcc:	ff0100b7          	lui	ra,0xff010
80000dd0:	f0008093          	addi	ra,ra,-256 # ff00ff00 <__global_pointer$+0x7f00acb8>
80000dd4:	00107133          	and	sp,zero,ra
80000dd8:	00000393          	li	t2,0
80000ddc:	00710463          	beq	sp,t2,80000de4 <test_225>
80000de0:	a28ff06f          	j	80000008 <fail>

80000de4 <test_225>:
80000de4:	0e100193          	li	gp,225
80000de8:	00ff00b7          	lui	ra,0xff0
80000dec:	0ff08093          	addi	ra,ra,255 # ff00ff <_start-0x7f00ff01>
80000df0:	0000f133          	and	sp,ra,zero
80000df4:	00000393          	li	t2,0
80000df8:	00710463          	beq	sp,t2,80000e00 <test_226>
80000dfc:	a0cff06f          	j	80000008 <fail>

80000e00 <test_226>:
80000e00:	0e200193          	li	gp,226
80000e04:	000070b3          	and	ra,zero,zero
80000e08:	00000393          	li	t2,0
80000e0c:	00708463          	beq	ra,t2,80000e14 <test_227>
80000e10:	9f8ff06f          	j	80000008 <fail>

80000e14 <test_227>:
80000e14:	0e300193          	li	gp,227
80000e18:	111110b7          	lui	ra,0x11111
80000e1c:	11108093          	addi	ra,ra,273 # 11111111 <_start-0x6eeeeeef>
80000e20:	22222137          	lui	sp,0x22222
80000e24:	22210113          	addi	sp,sp,546 # 22222222 <_start-0x5dddddde>
80000e28:	0020f033          	and	zero,ra,sp
80000e2c:	00000393          	li	t2,0
80000e30:	00700463          	beq	zero,t2,80000e38 <test_302>
80000e34:	9d4ff06f          	j	80000008 <fail>

80000e38 <test_302>:
80000e38:	12e00193          	li	gp,302
80000e3c:	ff0100b7          	lui	ra,0xff010
80000e40:	f0008093          	addi	ra,ra,-256 # ff00ff00 <__global_pointer$+0x7f00acb8>
80000e44:	f0f0f713          	andi	a4,ra,-241
80000e48:	ff0103b7          	lui	t2,0xff010
80000e4c:	f0038393          	addi	t2,t2,-256 # ff00ff00 <__global_pointer$+0x7f00acb8>
80000e50:	00770463          	beq	a4,t2,80000e58 <test_303>
80000e54:	9b4ff06f          	j	80000008 <fail>

80000e58 <test_303>:
80000e58:	12f00193          	li	gp,303
80000e5c:	0ff010b7          	lui	ra,0xff01
80000e60:	ff008093          	addi	ra,ra,-16 # ff00ff0 <_start-0x700ff010>
80000e64:	0f00f713          	andi	a4,ra,240
80000e68:	0f000393          	li	t2,240
80000e6c:	00770463          	beq	a4,t2,80000e74 <test_304>
80000e70:	998ff06f          	j	80000008 <fail>

80000e74 <test_304>:
80000e74:	13000193          	li	gp,304
80000e78:	00ff00b7          	lui	ra,0xff0
80000e7c:	0ff08093          	addi	ra,ra,255 # ff00ff <_start-0x7f00ff01>
80000e80:	70f0f713          	andi	a4,ra,1807
80000e84:	00f00393          	li	t2,15
80000e88:	00770463          	beq	a4,t2,80000e90 <test_305>
80000e8c:	97cff06f          	j	80000008 <fail>

80000e90 <test_305>:
80000e90:	13100193          	li	gp,305
80000e94:	f00ff0b7          	lui	ra,0xf00ff
80000e98:	00f08093          	addi	ra,ra,15 # f00ff00f <__global_pointer$+0x700f9dc7>
80000e9c:	0f00f713          	andi	a4,ra,240
80000ea0:	00000393          	li	t2,0
80000ea4:	00770463          	beq	a4,t2,80000eac <test_306>
80000ea8:	960ff06f          	j	80000008 <fail>

80000eac <test_306>:
80000eac:	13200193          	li	gp,306
80000eb0:	ff0100b7          	lui	ra,0xff010
80000eb4:	f0008093          	addi	ra,ra,-256 # ff00ff00 <__global_pointer$+0x7f00acb8>
80000eb8:	0f00f093          	andi	ra,ra,240
80000ebc:	00000393          	li	t2,0
80000ec0:	00708463          	beq	ra,t2,80000ec8 <test_307>
80000ec4:	944ff06f          	j	80000008 <fail>

80000ec8 <test_307>:
80000ec8:	13300193          	li	gp,307
80000ecc:	00000213          	li	tp,0
80000ed0:	0ff010b7          	lui	ra,0xff01
80000ed4:	ff008093          	addi	ra,ra,-16 # ff00ff0 <_start-0x700ff010>
80000ed8:	70f0f713          	andi	a4,ra,1807
80000edc:	00070313          	mv	t1,a4
80000ee0:	00120213          	addi	tp,tp,1 # 1 <_start-0x7fffffff>
80000ee4:	00200293          	li	t0,2
80000ee8:	fe5214e3          	bne	tp,t0,80000ed0 <test_307+0x8>
80000eec:	70000393          	li	t2,1792
80000ef0:	00730463          	beq	t1,t2,80000ef8 <test_308>
80000ef4:	914ff06f          	j	80000008 <fail>

80000ef8 <test_308>:
80000ef8:	13400193          	li	gp,308
80000efc:	00000213          	li	tp,0
80000f00:	00ff00b7          	lui	ra,0xff0
80000f04:	0ff08093          	addi	ra,ra,255 # ff00ff <_start-0x7f00ff01>
80000f08:	0f00f713          	andi	a4,ra,240
80000f0c:	00000013          	nop
80000f10:	00070313          	mv	t1,a4
80000f14:	00120213          	addi	tp,tp,1 # 1 <_start-0x7fffffff>
80000f18:	00200293          	li	t0,2
80000f1c:	fe5212e3          	bne	tp,t0,80000f00 <test_308+0x8>
80000f20:	0f000393          	li	t2,240
80000f24:	00730463          	beq	t1,t2,80000f2c <test_309>
80000f28:	8e0ff06f          	j	80000008 <fail>

80000f2c <test_309>:
80000f2c:	13500193          	li	gp,309
80000f30:	00000213          	li	tp,0
80000f34:	f00ff0b7          	lui	ra,0xf00ff
80000f38:	00f08093          	addi	ra,ra,15 # f00ff00f <__global_pointer$+0x700f9dc7>
80000f3c:	f0f0f713          	andi	a4,ra,-241
80000f40:	00000013          	nop
80000f44:	00000013          	nop
80000f48:	00070313          	mv	t1,a4
80000f4c:	00120213          	addi	tp,tp,1 # 1 <_start-0x7fffffff>
80000f50:	00200293          	li	t0,2
80000f54:	fe5210e3          	bne	tp,t0,80000f34 <test_309+0x8>
80000f58:	f00ff3b7          	lui	t2,0xf00ff
80000f5c:	00f38393          	addi	t2,t2,15 # f00ff00f <__global_pointer$+0x700f9dc7>
80000f60:	00730463          	beq	t1,t2,80000f68 <test_310>
80000f64:	8a4ff06f          	j	80000008 <fail>

80000f68 <test_310>:
80000f68:	13600193          	li	gp,310
80000f6c:	00000213          	li	tp,0
80000f70:	0ff010b7          	lui	ra,0xff01
80000f74:	ff008093          	addi	ra,ra,-16 # ff00ff0 <_start-0x700ff010>
80000f78:	70f0f713          	andi	a4,ra,1807
80000f7c:	00120213          	addi	tp,tp,1 # 1 <_start-0x7fffffff>
80000f80:	00200293          	li	t0,2
80000f84:	fe5216e3          	bne	tp,t0,80000f70 <test_310+0x8>
80000f88:	70000393          	li	t2,1792
80000f8c:	00770463          	beq	a4,t2,80000f94 <test_311>
80000f90:	878ff06f          	j	80000008 <fail>

80000f94 <test_311>:
80000f94:	13700193          	li	gp,311
80000f98:	00000213          	li	tp,0
80000f9c:	00ff00b7          	lui	ra,0xff0
80000fa0:	0ff08093          	addi	ra,ra,255 # ff00ff <_start-0x7f00ff01>
80000fa4:	00000013          	nop
80000fa8:	0f00f713          	andi	a4,ra,240
80000fac:	00120213          	addi	tp,tp,1 # 1 <_start-0x7fffffff>
80000fb0:	00200293          	li	t0,2
80000fb4:	fe5214e3          	bne	tp,t0,80000f9c <test_311+0x8>
80000fb8:	0f000393          	li	t2,240
80000fbc:	00770463          	beq	a4,t2,80000fc4 <test_312>
80000fc0:	848ff06f          	j	80000008 <fail>

80000fc4 <test_312>:
80000fc4:	13800193          	li	gp,312
80000fc8:	00000213          	li	tp,0
80000fcc:	f00ff0b7          	lui	ra,0xf00ff
80000fd0:	00f08093          	addi	ra,ra,15 # f00ff00f <__global_pointer$+0x700f9dc7>
80000fd4:	00000013          	nop
80000fd8:	00000013          	nop
80000fdc:	70f0f713          	andi	a4,ra,1807
80000fe0:	00120213          	addi	tp,tp,1 # 1 <_start-0x7fffffff>
80000fe4:	00200293          	li	t0,2
80000fe8:	fe5212e3          	bne	tp,t0,80000fcc <test_312+0x8>
80000fec:	00f00393          	li	t2,15
80000ff0:	00770463          	beq	a4,t2,80000ff8 <test_313>
80000ff4:	814ff06f          	j	80000008 <fail>

80000ff8 <test_313>:
80000ff8:	13900193          	li	gp,313
80000ffc:	0f007093          	andi	ra,zero,240
80001000:	00000393          	li	t2,0
80001004:	00708463          	beq	ra,t2,8000100c <test_314>
80001008:	800ff06f          	j	80000008 <fail>

8000100c <test_314>:
8000100c:	13a00193          	li	gp,314
80001010:	00ff00b7          	lui	ra,0xff0
80001014:	0ff08093          	addi	ra,ra,255 # ff00ff <_start-0x7f00ff01>
80001018:	70f0f013          	andi	zero,ra,1807
8000101c:	00000393          	li	t2,0
80001020:	00700463          	beq	zero,t2,80001028 <test_402>
80001024:	fe5fe06f          	j	80000008 <fail>

80001028 <test_402>:
80001028:	19200193          	li	gp,402
8000102c:	00000013          	nop
80001030:	00002517          	auipc	a0,0x2
80001034:	71c50513          	addi	a0,a0,1820 # 8000374c <test_1812+0x1c>
80001038:	004005ef          	jal	a1,8000103c <test_402+0x14>
8000103c:	fff00613          	li	a2,-1
80001040:	00c5c5b3          	xor	a1,a1,a2
80001044:	00158593          	addi	a1,a1,1
80001048:	00b50533          	add	a0,a0,a1
8000104c:	000023b7          	lui	t2,0x2
80001050:	71038393          	addi	t2,t2,1808 # 2710 <_start-0x7fffd8f0>
80001054:	00750463          	beq	a0,t2,8000105c <test_403>
80001058:	fb1fe06f          	j	80000008 <fail>

8000105c <test_403>:
8000105c:	19300193          	li	gp,403
80001060:	ffffe517          	auipc	a0,0xffffe
80001064:	8fc50513          	addi	a0,a0,-1796 # 7fffe95c <_start-0x16a4>
80001068:	004005ef          	jal	a1,8000106c <test_403+0x10>
8000106c:	fff00613          	li	a2,-1
80001070:	00c5c5b3          	xor	a1,a1,a2
80001074:	00158593          	addi	a1,a1,1
80001078:	00b50533          	add	a0,a0,a1
8000107c:	ffffe3b7          	lui	t2,0xffffe
80001080:	8f038393          	addi	t2,t2,-1808 # ffffd8f0 <__global_pointer$+0x7fff86a8>
80001084:	00750463          	beq	a0,t2,8000108c <test_502>
80001088:	f81fe06f          	j	80000008 <fail>

8000108c <test_502>:
8000108c:	1f600193          	li	gp,502
80001090:	00000093          	li	ra,0
80001094:	00000113          	li	sp,0
80001098:	00208863          	beq	ra,sp,800010a8 <test_502+0x1c>
8000109c:	00300463          	beq	zero,gp,800010a4 <test_502+0x18>
800010a0:	f69fe06f          	j	80000008 <fail>
800010a4:	00301863          	bne	zero,gp,800010b4 <test_503>
800010a8:	fe208ee3          	beq	ra,sp,800010a4 <test_502+0x18>
800010ac:	00300463          	beq	zero,gp,800010b4 <test_503>
800010b0:	f59fe06f          	j	80000008 <fail>

800010b4 <test_503>:
800010b4:	1f700193          	li	gp,503
800010b8:	00100093          	li	ra,1
800010bc:	00100113          	li	sp,1
800010c0:	00208863          	beq	ra,sp,800010d0 <test_503+0x1c>
800010c4:	00300463          	beq	zero,gp,800010cc <test_503+0x18>
800010c8:	f41fe06f          	j	80000008 <fail>
800010cc:	00301863          	bne	zero,gp,800010dc <test_504>
800010d0:	fe208ee3          	beq	ra,sp,800010cc <test_503+0x18>
800010d4:	00300463          	beq	zero,gp,800010dc <test_504>
800010d8:	f31fe06f          	j	80000008 <fail>

800010dc <test_504>:
800010dc:	1f800193          	li	gp,504
800010e0:	fff00093          	li	ra,-1
800010e4:	fff00113          	li	sp,-1
800010e8:	00208863          	beq	ra,sp,800010f8 <test_504+0x1c>
800010ec:	00300463          	beq	zero,gp,800010f4 <test_504+0x18>
800010f0:	f19fe06f          	j	80000008 <fail>
800010f4:	00301863          	bne	zero,gp,80001104 <test_505>
800010f8:	fe208ee3          	beq	ra,sp,800010f4 <test_504+0x18>
800010fc:	00300463          	beq	zero,gp,80001104 <test_505>
80001100:	f09fe06f          	j	80000008 <fail>

80001104 <test_505>:
80001104:	1f900193          	li	gp,505
80001108:	00000093          	li	ra,0
8000110c:	00100113          	li	sp,1
80001110:	00208463          	beq	ra,sp,80001118 <test_505+0x14>
80001114:	00301663          	bne	zero,gp,80001120 <test_505+0x1c>
80001118:	00300463          	beq	zero,gp,80001120 <test_505+0x1c>
8000111c:	eedfe06f          	j	80000008 <fail>
80001120:	fe208ce3          	beq	ra,sp,80001118 <test_505+0x14>

80001124 <test_506>:
80001124:	1fa00193          	li	gp,506
80001128:	00100093          	li	ra,1
8000112c:	00000113          	li	sp,0
80001130:	00208463          	beq	ra,sp,80001138 <test_506+0x14>
80001134:	00301663          	bne	zero,gp,80001140 <test_506+0x1c>
80001138:	00300463          	beq	zero,gp,80001140 <test_506+0x1c>
8000113c:	ecdfe06f          	j	80000008 <fail>
80001140:	fe208ce3          	beq	ra,sp,80001138 <test_506+0x14>

80001144 <test_507>:
80001144:	1fb00193          	li	gp,507
80001148:	fff00093          	li	ra,-1
8000114c:	00100113          	li	sp,1
80001150:	00208463          	beq	ra,sp,80001158 <test_507+0x14>
80001154:	00301663          	bne	zero,gp,80001160 <test_507+0x1c>
80001158:	00300463          	beq	zero,gp,80001160 <test_507+0x1c>
8000115c:	eadfe06f          	j	80000008 <fail>
80001160:	fe208ce3          	beq	ra,sp,80001158 <test_507+0x14>

80001164 <test_508>:
80001164:	1fc00193          	li	gp,508
80001168:	00100093          	li	ra,1
8000116c:	fff00113          	li	sp,-1
80001170:	00208463          	beq	ra,sp,80001178 <test_508+0x14>
80001174:	00301663          	bne	zero,gp,80001180 <test_508+0x1c>
80001178:	00300463          	beq	zero,gp,80001180 <test_508+0x1c>
8000117c:	e8dfe06f          	j	80000008 <fail>
80001180:	fe208ce3          	beq	ra,sp,80001178 <test_508+0x14>

80001184 <test_509>:
80001184:	1fd00193          	li	gp,509
80001188:	00000213          	li	tp,0
8000118c:	00000093          	li	ra,0
80001190:	fff00113          	li	sp,-1
80001194:	00209463          	bne	ra,sp,8000119c <test_509+0x18>
80001198:	e71fe06f          	j	80000008 <fail>
8000119c:	00120213          	addi	tp,tp,1 # 1 <_start-0x7fffffff>
800011a0:	00200293          	li	t0,2
800011a4:	fe5214e3          	bne	tp,t0,8000118c <test_509+0x8>

800011a8 <test_510>:
800011a8:	1fe00193          	li	gp,510
800011ac:	00000213          	li	tp,0
800011b0:	00000093          	li	ra,0
800011b4:	fff00113          	li	sp,-1
800011b8:	00000013          	nop
800011bc:	00209463          	bne	ra,sp,800011c4 <test_510+0x1c>
800011c0:	e49fe06f          	j	80000008 <fail>
800011c4:	00120213          	addi	tp,tp,1 # 1 <_start-0x7fffffff>
800011c8:	00200293          	li	t0,2
800011cc:	fe5212e3          	bne	tp,t0,800011b0 <test_510+0x8>

800011d0 <test_511>:
800011d0:	1ff00193          	li	gp,511
800011d4:	00000213          	li	tp,0
800011d8:	00000093          	li	ra,0
800011dc:	fff00113          	li	sp,-1
800011e0:	00000013          	nop
800011e4:	00000013          	nop
800011e8:	00209463          	bne	ra,sp,800011f0 <test_511+0x20>
800011ec:	e1dfe06f          	j	80000008 <fail>
800011f0:	00120213          	addi	tp,tp,1 # 1 <_start-0x7fffffff>
800011f4:	00200293          	li	t0,2
800011f8:	fe5210e3          	bne	tp,t0,800011d8 <test_511+0x8>

800011fc <test_512>:
800011fc:	20000193          	li	gp,512
80001200:	00000213          	li	tp,0
80001204:	00000093          	li	ra,0
80001208:	00000013          	nop
8000120c:	fff00113          	li	sp,-1
80001210:	00209463          	bne	ra,sp,80001218 <test_512+0x1c>
80001214:	df5fe06f          	j	80000008 <fail>
80001218:	00120213          	addi	tp,tp,1 # 1 <_start-0x7fffffff>
8000121c:	00200293          	li	t0,2
80001220:	fe5212e3          	bne	tp,t0,80001204 <test_512+0x8>

80001224 <test_513>:
80001224:	20100193          	li	gp,513
80001228:	00000213          	li	tp,0
8000122c:	00000093          	li	ra,0
80001230:	00000013          	nop
80001234:	fff00113          	li	sp,-1
80001238:	00000013          	nop
8000123c:	00209463          	bne	ra,sp,80001244 <test_513+0x20>
80001240:	dc9fe06f          	j	80000008 <fail>
80001244:	00120213          	addi	tp,tp,1 # 1 <_start-0x7fffffff>
80001248:	00200293          	li	t0,2
8000124c:	fe5210e3          	bne	tp,t0,8000122c <test_513+0x8>

80001250 <test_514>:
80001250:	20200193          	li	gp,514
80001254:	00000213          	li	tp,0
80001258:	00000093          	li	ra,0
8000125c:	00000013          	nop
80001260:	00000013          	nop
80001264:	fff00113          	li	sp,-1
80001268:	00209463          	bne	ra,sp,80001270 <test_514+0x20>
8000126c:	d9dfe06f          	j	80000008 <fail>
80001270:	00120213          	addi	tp,tp,1 # 1 <_start-0x7fffffff>
80001274:	00200293          	li	t0,2
80001278:	fe5210e3          	bne	tp,t0,80001258 <test_514+0x8>

8000127c <test_515>:
8000127c:	20300193          	li	gp,515
80001280:	00000213          	li	tp,0
80001284:	00000093          	li	ra,0
80001288:	fff00113          	li	sp,-1
8000128c:	00209463          	bne	ra,sp,80001294 <test_515+0x18>
80001290:	d79fe06f          	j	80000008 <fail>
80001294:	00120213          	addi	tp,tp,1 # 1 <_start-0x7fffffff>
80001298:	00200293          	li	t0,2
8000129c:	fe5214e3          	bne	tp,t0,80001284 <test_515+0x8>

800012a0 <test_516>:
800012a0:	20400193          	li	gp,516
800012a4:	00000213          	li	tp,0
800012a8:	00000093          	li	ra,0
800012ac:	fff00113          	li	sp,-1
800012b0:	00000013          	nop
800012b4:	00209463          	bne	ra,sp,800012bc <test_516+0x1c>
800012b8:	d51fe06f          	j	80000008 <fail>
800012bc:	00120213          	addi	tp,tp,1 # 1 <_start-0x7fffffff>
800012c0:	00200293          	li	t0,2
800012c4:	fe5212e3          	bne	tp,t0,800012a8 <test_516+0x8>

800012c8 <test_517>:
800012c8:	20500193          	li	gp,517
800012cc:	00000213          	li	tp,0
800012d0:	00000093          	li	ra,0
800012d4:	fff00113          	li	sp,-1
800012d8:	00000013          	nop
800012dc:	00000013          	nop
800012e0:	00209463          	bne	ra,sp,800012e8 <test_517+0x20>
800012e4:	d25fe06f          	j	80000008 <fail>
800012e8:	00120213          	addi	tp,tp,1 # 1 <_start-0x7fffffff>
800012ec:	00200293          	li	t0,2
800012f0:	fe5210e3          	bne	tp,t0,800012d0 <test_517+0x8>

800012f4 <test_518>:
800012f4:	20600193          	li	gp,518
800012f8:	00000213          	li	tp,0
800012fc:	00000093          	li	ra,0
80001300:	00000013          	nop
80001304:	fff00113          	li	sp,-1
80001308:	00209463          	bne	ra,sp,80001310 <test_518+0x1c>
8000130c:	cfdfe06f          	j	80000008 <fail>
80001310:	00120213          	addi	tp,tp,1 # 1 <_start-0x7fffffff>
80001314:	00200293          	li	t0,2
80001318:	fe5212e3          	bne	tp,t0,800012fc <test_518+0x8>

8000131c <test_519>:
8000131c:	20700193          	li	gp,519
80001320:	00000213          	li	tp,0
80001324:	00000093          	li	ra,0
80001328:	00000013          	nop
8000132c:	fff00113          	li	sp,-1
80001330:	00000013          	nop
80001334:	00209463          	bne	ra,sp,8000133c <test_519+0x20>
80001338:	cd1fe06f          	j	80000008 <fail>
8000133c:	00120213          	addi	tp,tp,1 # 1 <_start-0x7fffffff>
80001340:	00200293          	li	t0,2
80001344:	fe5210e3          	bne	tp,t0,80001324 <test_519+0x8>

80001348 <test_520>:
80001348:	20800193          	li	gp,520
8000134c:	00000213          	li	tp,0
80001350:	00000093          	li	ra,0
80001354:	00000013          	nop
80001358:	00000013          	nop
8000135c:	fff00113          	li	sp,-1
80001360:	00209463          	bne	ra,sp,80001368 <test_520+0x20>
80001364:	ca5fe06f          	j	80000008 <fail>
80001368:	00120213          	addi	tp,tp,1 # 1 <_start-0x7fffffff>
8000136c:	00200293          	li	t0,2
80001370:	fe5210e3          	bne	tp,t0,80001350 <test_520+0x8>

80001374 <jalr_test_2>:
80001374:	25a00193          	li	gp,602
80001378:	00000293          	li	t0,0
8000137c:	00000317          	auipc	t1,0x0
80001380:	01030313          	addi	t1,t1,16 # 8000138c <jalr_target_2>
80001384:	000302e7          	jalr	t0,t1

80001388 <jalr_linkaddr_2>:
80001388:	c81fe06f          	j	80000008 <fail>

8000138c <jalr_target_2>:
8000138c:	00000317          	auipc	t1,0x0
80001390:	ffc30313          	addi	t1,t1,-4 # 80001388 <jalr_linkaddr_2>
80001394:	00628463          	beq	t0,t1,8000139c <jalr_test_3>
80001398:	c71fe06f          	j	80000008 <fail>

8000139c <jalr_test_3>:
8000139c:	25b00193          	li	gp,603
800013a0:	00000297          	auipc	t0,0x0
800013a4:	01028293          	addi	t0,t0,16 # 800013b0 <jalr_target_3>
800013a8:	000282e7          	jalr	t0,t0

800013ac <jalr_linkaddr_3>:
800013ac:	c5dfe06f          	j	80000008 <fail>

800013b0 <jalr_target_3>:
800013b0:	00000317          	auipc	t1,0x0
800013b4:	ffc30313          	addi	t1,t1,-4 # 800013ac <jalr_linkaddr_3>
800013b8:	00628463          	beq	t0,t1,800013c0 <test_604>
800013bc:	c4dfe06f          	j	80000008 <fail>

800013c0 <test_604>:
800013c0:	25c00193          	li	gp,604
800013c4:	00000213          	li	tp,0
800013c8:	00000317          	auipc	t1,0x0
800013cc:	01430313          	addi	t1,t1,20 # 800013dc <test_604+0x1c>
800013d0:	000306e7          	jalr	a3,t1
800013d4:	00300463          	beq	zero,gp,800013dc <test_604+0x1c>
800013d8:	c31fe06f          	j	80000008 <fail>
800013dc:	00120213          	addi	tp,tp,1 # 1 <_start-0x7fffffff>
800013e0:	00200293          	li	t0,2
800013e4:	fe5212e3          	bne	tp,t0,800013c8 <test_604+0x8>

800013e8 <test_605>:
800013e8:	25d00193          	li	gp,605
800013ec:	00000213          	li	tp,0
800013f0:	00000317          	auipc	t1,0x0
800013f4:	01830313          	addi	t1,t1,24 # 80001408 <test_605+0x20>
800013f8:	00000013          	nop
800013fc:	000306e7          	jalr	a3,t1
80001400:	00300463          	beq	zero,gp,80001408 <test_605+0x20>
80001404:	c05fe06f          	j	80000008 <fail>
80001408:	00120213          	addi	tp,tp,1 # 1 <_start-0x7fffffff>
8000140c:	00200293          	li	t0,2
80001410:	fe5210e3          	bne	tp,t0,800013f0 <test_605+0x8>

80001414 <test_606>:
80001414:	25e00193          	li	gp,606
80001418:	00000213          	li	tp,0
8000141c:	00000317          	auipc	t1,0x0
80001420:	01c30313          	addi	t1,t1,28 # 80001438 <test_606+0x24>
80001424:	00000013          	nop
80001428:	00000013          	nop
8000142c:	000306e7          	jalr	a3,t1
80001430:	00300463          	beq	zero,gp,80001438 <test_606+0x24>
80001434:	bd5fe06f          	j	80000008 <fail>
80001438:	00120213          	addi	tp,tp,1 # 1 <_start-0x7fffffff>
8000143c:	00200293          	li	t0,2
80001440:	fc521ee3          	bne	tp,t0,8000141c <test_606+0x8>

80001444 <test_702>:
80001444:	2be00193          	li	gp,702
80001448:	fff00793          	li	a5,-1
8000144c:	00004097          	auipc	ra,0x4
80001450:	bb408093          	addi	ra,ra,-1100 # 80005000 <__BSS_END__+0x510>
80001454:	00008703          	lb	a4,0(ra)
80001458:	fff00393          	li	t2,-1
8000145c:	00770463          	beq	a4,t2,80001464 <test_703>
80001460:	ba9fe06f          	j	80000008 <fail>

80001464 <test_703>:
80001464:	2bf00193          	li	gp,703
80001468:	00000793          	li	a5,0
8000146c:	00004097          	auipc	ra,0x4
80001470:	b9408093          	addi	ra,ra,-1132 # 80005000 <__BSS_END__+0x510>
80001474:	00108703          	lb	a4,1(ra)
80001478:	00000393          	li	t2,0
8000147c:	00770463          	beq	a4,t2,80001484 <test_704>
80001480:	b89fe06f          	j	80000008 <fail>

80001484 <test_704>:
80001484:	2c000193          	li	gp,704
80001488:	ff000793          	li	a5,-16
8000148c:	00004097          	auipc	ra,0x4
80001490:	b7408093          	addi	ra,ra,-1164 # 80005000 <__BSS_END__+0x510>
80001494:	00208703          	lb	a4,2(ra)
80001498:	ff000393          	li	t2,-16
8000149c:	00770463          	beq	a4,t2,800014a4 <test_705>
800014a0:	b69fe06f          	j	80000008 <fail>

800014a4 <test_705>:
800014a4:	2c100193          	li	gp,705
800014a8:	00f00793          	li	a5,15
800014ac:	00004097          	auipc	ra,0x4
800014b0:	b5408093          	addi	ra,ra,-1196 # 80005000 <__BSS_END__+0x510>
800014b4:	00308703          	lb	a4,3(ra)
800014b8:	00f00393          	li	t2,15
800014bc:	00770463          	beq	a4,t2,800014c4 <test_706>
800014c0:	b49fe06f          	j	80000008 <fail>

800014c4 <test_706>:
800014c4:	2c200193          	li	gp,706
800014c8:	fff00793          	li	a5,-1
800014cc:	00004097          	auipc	ra,0x4
800014d0:	b3708093          	addi	ra,ra,-1225 # 80005003 <__BSS_END__+0x513>
800014d4:	ffd08703          	lb	a4,-3(ra)
800014d8:	fff00393          	li	t2,-1
800014dc:	00770463          	beq	a4,t2,800014e4 <test_707>
800014e0:	b29fe06f          	j	80000008 <fail>

800014e4 <test_707>:
800014e4:	2c300193          	li	gp,707
800014e8:	00000793          	li	a5,0
800014ec:	00004097          	auipc	ra,0x4
800014f0:	b1708093          	addi	ra,ra,-1257 # 80005003 <__BSS_END__+0x513>
800014f4:	ffe08703          	lb	a4,-2(ra)
800014f8:	00000393          	li	t2,0
800014fc:	00770463          	beq	a4,t2,80001504 <test_708>
80001500:	b09fe06f          	j	80000008 <fail>

80001504 <test_708>:
80001504:	2c400193          	li	gp,708
80001508:	ff000793          	li	a5,-16
8000150c:	00004097          	auipc	ra,0x4
80001510:	af708093          	addi	ra,ra,-1289 # 80005003 <__BSS_END__+0x513>
80001514:	fff08703          	lb	a4,-1(ra)
80001518:	ff000393          	li	t2,-16
8000151c:	00770463          	beq	a4,t2,80001524 <test_709>
80001520:	ae9fe06f          	j	80000008 <fail>

80001524 <test_709>:
80001524:	2c500193          	li	gp,709
80001528:	00f00793          	li	a5,15
8000152c:	00004097          	auipc	ra,0x4
80001530:	ad708093          	addi	ra,ra,-1321 # 80005003 <__BSS_END__+0x513>
80001534:	00008703          	lb	a4,0(ra)
80001538:	00f00393          	li	t2,15
8000153c:	00770463          	beq	a4,t2,80001544 <test_710>
80001540:	ac9fe06f          	j	80000008 <fail>

80001544 <test_710>:
80001544:	2c600193          	li	gp,710
80001548:	00004097          	auipc	ra,0x4
8000154c:	ab808093          	addi	ra,ra,-1352 # 80005000 <__BSS_END__+0x510>
80001550:	fe008093          	addi	ra,ra,-32
80001554:	02008283          	lb	t0,32(ra)
80001558:	fff00393          	li	t2,-1
8000155c:	00728463          	beq	t0,t2,80001564 <test_711>
80001560:	aa9fe06f          	j	80000008 <fail>

80001564 <test_711>:
80001564:	2c700193          	li	gp,711
80001568:	00004097          	auipc	ra,0x4
8000156c:	a9808093          	addi	ra,ra,-1384 # 80005000 <__BSS_END__+0x510>
80001570:	ffa08093          	addi	ra,ra,-6
80001574:	00708283          	lb	t0,7(ra)
80001578:	00000393          	li	t2,0
8000157c:	00728463          	beq	t0,t2,80001584 <test_712>
80001580:	a89fe06f          	j	80000008 <fail>

80001584 <test_712>:
80001584:	2c800193          	li	gp,712
80001588:	00000213          	li	tp,0
8000158c:	00004097          	auipc	ra,0x4
80001590:	a7508093          	addi	ra,ra,-1419 # 80005001 <__BSS_END__+0x511>
80001594:	00108703          	lb	a4,1(ra)
80001598:	00070313          	mv	t1,a4
8000159c:	ff000393          	li	t2,-16
800015a0:	00730463          	beq	t1,t2,800015a8 <test_712+0x24>
800015a4:	a65fe06f          	j	80000008 <fail>
800015a8:	00120213          	addi	tp,tp,1 # 1 <_start-0x7fffffff>
800015ac:	00200293          	li	t0,2
800015b0:	fc521ee3          	bne	tp,t0,8000158c <test_712+0x8>

800015b4 <test_713>:
800015b4:	2c900193          	li	gp,713
800015b8:	00000213          	li	tp,0
800015bc:	00004097          	auipc	ra,0x4
800015c0:	a4608093          	addi	ra,ra,-1466 # 80005002 <__BSS_END__+0x512>
800015c4:	00108703          	lb	a4,1(ra)
800015c8:	00000013          	nop
800015cc:	00070313          	mv	t1,a4
800015d0:	00f00393          	li	t2,15
800015d4:	00730463          	beq	t1,t2,800015dc <test_713+0x28>
800015d8:	a31fe06f          	j	80000008 <fail>
800015dc:	00120213          	addi	tp,tp,1 # 1 <_start-0x7fffffff>
800015e0:	00200293          	li	t0,2
800015e4:	fc521ce3          	bne	tp,t0,800015bc <test_713+0x8>

800015e8 <test_714>:
800015e8:	2ca00193          	li	gp,714
800015ec:	00000213          	li	tp,0
800015f0:	00004097          	auipc	ra,0x4
800015f4:	a1008093          	addi	ra,ra,-1520 # 80005000 <__BSS_END__+0x510>
800015f8:	00108703          	lb	a4,1(ra)
800015fc:	00000013          	nop
80001600:	00000013          	nop
80001604:	00070313          	mv	t1,a4
80001608:	00000393          	li	t2,0
8000160c:	00730463          	beq	t1,t2,80001614 <test_714+0x2c>
80001610:	9f9fe06f          	j	80000008 <fail>
80001614:	00120213          	addi	tp,tp,1 # 1 <_start-0x7fffffff>
80001618:	00200293          	li	t0,2
8000161c:	fc521ae3          	bne	tp,t0,800015f0 <test_714+0x8>

80001620 <test_715>:
80001620:	2cb00193          	li	gp,715
80001624:	00000213          	li	tp,0
80001628:	00004097          	auipc	ra,0x4
8000162c:	9d908093          	addi	ra,ra,-1575 # 80005001 <__BSS_END__+0x511>
80001630:	00108703          	lb	a4,1(ra)
80001634:	ff000393          	li	t2,-16
80001638:	00770463          	beq	a4,t2,80001640 <test_715+0x20>
8000163c:	9cdfe06f          	j	80000008 <fail>
80001640:	00120213          	addi	tp,tp,1 # 1 <_start-0x7fffffff>
80001644:	00200293          	li	t0,2
80001648:	fe5210e3          	bne	tp,t0,80001628 <test_715+0x8>

8000164c <test_716>:
8000164c:	2cc00193          	li	gp,716
80001650:	00000213          	li	tp,0
80001654:	00004097          	auipc	ra,0x4
80001658:	9ae08093          	addi	ra,ra,-1618 # 80005002 <__BSS_END__+0x512>
8000165c:	00000013          	nop
80001660:	00108703          	lb	a4,1(ra)
80001664:	00f00393          	li	t2,15
80001668:	00770463          	beq	a4,t2,80001670 <test_716+0x24>
8000166c:	99dfe06f          	j	80000008 <fail>
80001670:	00120213          	addi	tp,tp,1 # 1 <_start-0x7fffffff>
80001674:	00200293          	li	t0,2
80001678:	fc521ee3          	bne	tp,t0,80001654 <test_716+0x8>

8000167c <test_717>:
8000167c:	2cd00193          	li	gp,717
80001680:	00000213          	li	tp,0
80001684:	00004097          	auipc	ra,0x4
80001688:	97c08093          	addi	ra,ra,-1668 # 80005000 <__BSS_END__+0x510>
8000168c:	00000013          	nop
80001690:	00000013          	nop
80001694:	00108703          	lb	a4,1(ra)
80001698:	00000393          	li	t2,0
8000169c:	00770463          	beq	a4,t2,800016a4 <test_717+0x28>
800016a0:	969fe06f          	j	80000008 <fail>
800016a4:	00120213          	addi	tp,tp,1 # 1 <_start-0x7fffffff>
800016a8:	00200293          	li	t0,2
800016ac:	fc521ce3          	bne	tp,t0,80001684 <test_717+0x8>

800016b0 <test_718>:
800016b0:	2ce00193          	li	gp,718
800016b4:	00004297          	auipc	t0,0x4
800016b8:	94c28293          	addi	t0,t0,-1716 # 80005000 <__BSS_END__+0x510>
800016bc:	00028103          	lb	sp,0(t0)
800016c0:	00200113          	li	sp,2
800016c4:	00200393          	li	t2,2
800016c8:	00710463          	beq	sp,t2,800016d0 <test_719>
800016cc:	93dfe06f          	j	80000008 <fail>

800016d0 <test_719>:
800016d0:	2cf00193          	li	gp,719
800016d4:	00004297          	auipc	t0,0x4
800016d8:	92c28293          	addi	t0,t0,-1748 # 80005000 <__BSS_END__+0x510>
800016dc:	00028103          	lb	sp,0(t0)
800016e0:	00000013          	nop
800016e4:	00200113          	li	sp,2
800016e8:	00200393          	li	t2,2
800016ec:	00710463          	beq	sp,t2,800016f4 <test_802>
800016f0:	919fe06f          	j	80000008 <fail>

800016f4 <test_802>:
800016f4:	32200193          	li	gp,802
800016f8:	00004097          	auipc	ra,0x4
800016fc:	91808093          	addi	ra,ra,-1768 # 80005010 <__BSS_END__+0x520>
80001700:	faa00113          	li	sp,-86
80001704:	00000797          	auipc	a5,0x0
80001708:	01478793          	addi	a5,a5,20 # 80001718 <test_802+0x24>
8000170c:	00208023          	sb	sp,0(ra)
80001710:	00008703          	lb	a4,0(ra)
80001714:	0080006f          	j	8000171c <test_802+0x28>
80001718:	00010713          	mv	a4,sp
8000171c:	faa00393          	li	t2,-86
80001720:	00770463          	beq	a4,t2,80001728 <test_803>
80001724:	8e5fe06f          	j	80000008 <fail>

80001728 <test_803>:
80001728:	32300193          	li	gp,803
8000172c:	00004097          	auipc	ra,0x4
80001730:	8e408093          	addi	ra,ra,-1820 # 80005010 <__BSS_END__+0x520>
80001734:	00000113          	li	sp,0
80001738:	00000797          	auipc	a5,0x0
8000173c:	01478793          	addi	a5,a5,20 # 8000174c <test_803+0x24>
80001740:	002080a3          	sb	sp,1(ra)
80001744:	00108703          	lb	a4,1(ra)
80001748:	0080006f          	j	80001750 <test_803+0x28>
8000174c:	00010713          	mv	a4,sp
80001750:	00000393          	li	t2,0
80001754:	00770463          	beq	a4,t2,8000175c <test_804>
80001758:	8b1fe06f          	j	80000008 <fail>

8000175c <test_804>:
8000175c:	32400193          	li	gp,804
80001760:	00004097          	auipc	ra,0x4
80001764:	8b008093          	addi	ra,ra,-1872 # 80005010 <__BSS_END__+0x520>
80001768:	fa000113          	li	sp,-96
8000176c:	00000797          	auipc	a5,0x0
80001770:	01478793          	addi	a5,a5,20 # 80001780 <test_804+0x24>
80001774:	00208123          	sb	sp,2(ra)
80001778:	00208703          	lb	a4,2(ra)
8000177c:	0080006f          	j	80001784 <test_804+0x28>
80001780:	00010713          	mv	a4,sp
80001784:	fa000393          	li	t2,-96
80001788:	00770463          	beq	a4,t2,80001790 <test_805>
8000178c:	87dfe06f          	j	80000008 <fail>

80001790 <test_805>:
80001790:	32500193          	li	gp,805
80001794:	00004097          	auipc	ra,0x4
80001798:	87c08093          	addi	ra,ra,-1924 # 80005010 <__BSS_END__+0x520>
8000179c:	00a00113          	li	sp,10
800017a0:	00000797          	auipc	a5,0x0
800017a4:	01478793          	addi	a5,a5,20 # 800017b4 <test_805+0x24>
800017a8:	002081a3          	sb	sp,3(ra)
800017ac:	00308703          	lb	a4,3(ra)
800017b0:	0080006f          	j	800017b8 <test_805+0x28>
800017b4:	00010713          	mv	a4,sp
800017b8:	00a00393          	li	t2,10
800017bc:	00770463          	beq	a4,t2,800017c4 <test_806>
800017c0:	849fe06f          	j	80000008 <fail>

800017c4 <test_806>:
800017c4:	32600193          	li	gp,806
800017c8:	00004097          	auipc	ra,0x4
800017cc:	84f08093          	addi	ra,ra,-1969 # 80005017 <__BSS_END__+0x527>
800017d0:	faa00113          	li	sp,-86
800017d4:	00000797          	auipc	a5,0x0
800017d8:	01478793          	addi	a5,a5,20 # 800017e8 <test_806+0x24>
800017dc:	fe208ea3          	sb	sp,-3(ra)
800017e0:	ffd08703          	lb	a4,-3(ra)
800017e4:	0080006f          	j	800017ec <test_806+0x28>
800017e8:	00010713          	mv	a4,sp
800017ec:	faa00393          	li	t2,-86
800017f0:	00770463          	beq	a4,t2,800017f8 <test_807>
800017f4:	815fe06f          	j	80000008 <fail>

800017f8 <test_807>:
800017f8:	32700193          	li	gp,807
800017fc:	00004097          	auipc	ra,0x4
80001800:	81b08093          	addi	ra,ra,-2021 # 80005017 <__BSS_END__+0x527>
80001804:	00000113          	li	sp,0
80001808:	00000797          	auipc	a5,0x0
8000180c:	01478793          	addi	a5,a5,20 # 8000181c <test_807+0x24>
80001810:	fe208f23          	sb	sp,-2(ra)
80001814:	ffe08703          	lb	a4,-2(ra)
80001818:	0080006f          	j	80001820 <test_807+0x28>
8000181c:	00010713          	mv	a4,sp
80001820:	00000393          	li	t2,0
80001824:	00770463          	beq	a4,t2,8000182c <test_808>
80001828:	fe0fe06f          	j	80000008 <fail>

8000182c <test_808>:
8000182c:	32800193          	li	gp,808
80001830:	00003097          	auipc	ra,0x3
80001834:	7e708093          	addi	ra,ra,2023 # 80005017 <__BSS_END__+0x527>
80001838:	fa000113          	li	sp,-96
8000183c:	00000797          	auipc	a5,0x0
80001840:	01478793          	addi	a5,a5,20 # 80001850 <test_808+0x24>
80001844:	fe208fa3          	sb	sp,-1(ra)
80001848:	fff08703          	lb	a4,-1(ra)
8000184c:	0080006f          	j	80001854 <test_808+0x28>
80001850:	00010713          	mv	a4,sp
80001854:	fa000393          	li	t2,-96
80001858:	00770463          	beq	a4,t2,80001860 <test_809>
8000185c:	facfe06f          	j	80000008 <fail>

80001860 <test_809>:
80001860:	32900193          	li	gp,809
80001864:	00003097          	auipc	ra,0x3
80001868:	7b308093          	addi	ra,ra,1971 # 80005017 <__BSS_END__+0x527>
8000186c:	00a00113          	li	sp,10
80001870:	00000797          	auipc	a5,0x0
80001874:	01478793          	addi	a5,a5,20 # 80001884 <test_809+0x24>
80001878:	00208023          	sb	sp,0(ra)
8000187c:	00008703          	lb	a4,0(ra)
80001880:	0080006f          	j	80001888 <test_809+0x28>
80001884:	00010713          	mv	a4,sp
80001888:	00a00393          	li	t2,10
8000188c:	00770463          	beq	a4,t2,80001894 <test_810>
80001890:	f78fe06f          	j	80000008 <fail>

80001894 <test_810>:
80001894:	32a00193          	li	gp,810
80001898:	00003097          	auipc	ra,0x3
8000189c:	78008093          	addi	ra,ra,1920 # 80005018 <__BSS_END__+0x528>
800018a0:	12345137          	lui	sp,0x12345
800018a4:	67810113          	addi	sp,sp,1656 # 12345678 <_start-0x6dcba988>
800018a8:	fe008213          	addi	tp,ra,-32
800018ac:	02220023          	sb	sp,32(tp) # 20 <_start-0x7fffffe0>
800018b0:	00008283          	lb	t0,0(ra)
800018b4:	07800393          	li	t2,120
800018b8:	00728463          	beq	t0,t2,800018c0 <test_811>
800018bc:	f4cfe06f          	j	80000008 <fail>

800018c0 <test_811>:
800018c0:	32b00193          	li	gp,811
800018c4:	00003097          	auipc	ra,0x3
800018c8:	75408093          	addi	ra,ra,1876 # 80005018 <__BSS_END__+0x528>
800018cc:	00003137          	lui	sp,0x3
800018d0:	09810113          	addi	sp,sp,152 # 3098 <_start-0x7fffcf68>
800018d4:	ffa08093          	addi	ra,ra,-6
800018d8:	002083a3          	sb	sp,7(ra)
800018dc:	00003217          	auipc	tp,0x3
800018e0:	73d20213          	addi	tp,tp,1853 # 80005019 <__BSS_END__+0x529>
800018e4:	00020283          	lb	t0,0(tp) # 0 <_start-0x80000000>
800018e8:	f9800393          	li	t2,-104
800018ec:	00728463          	beq	t0,t2,800018f4 <test_812>
800018f0:	f18fe06f          	j	80000008 <fail>

800018f4 <test_812>:
800018f4:	32c00193          	li	gp,812
800018f8:	00000213          	li	tp,0
800018fc:	fdd00093          	li	ra,-35
80001900:	00003117          	auipc	sp,0x3
80001904:	71010113          	addi	sp,sp,1808 # 80005010 <__BSS_END__+0x520>
80001908:	00110023          	sb	ra,0(sp)
8000190c:	00010703          	lb	a4,0(sp)
80001910:	fdd00393          	li	t2,-35
80001914:	00770463          	beq	a4,t2,8000191c <test_812+0x28>
80001918:	ef0fe06f          	j	80000008 <fail>
8000191c:	00120213          	addi	tp,tp,1 # 1 <_start-0x7fffffff>
80001920:	00200293          	li	t0,2
80001924:	fc521ce3          	bne	tp,t0,800018fc <test_812+0x8>

80001928 <test_813>:
80001928:	32d00193          	li	gp,813
8000192c:	00000213          	li	tp,0
80001930:	fcd00093          	li	ra,-51
80001934:	00003117          	auipc	sp,0x3
80001938:	6dc10113          	addi	sp,sp,1756 # 80005010 <__BSS_END__+0x520>
8000193c:	00000013          	nop
80001940:	001100a3          	sb	ra,1(sp)
80001944:	00110703          	lb	a4,1(sp)
80001948:	fcd00393          	li	t2,-51
8000194c:	00770463          	beq	a4,t2,80001954 <test_813+0x2c>
80001950:	eb8fe06f          	j	80000008 <fail>
80001954:	00120213          	addi	tp,tp,1 # 1 <_start-0x7fffffff>
80001958:	00200293          	li	t0,2
8000195c:	fc521ae3          	bne	tp,t0,80001930 <test_813+0x8>

80001960 <test_814>:
80001960:	32e00193          	li	gp,814
80001964:	00000213          	li	tp,0
80001968:	fcc00093          	li	ra,-52
8000196c:	00003117          	auipc	sp,0x3
80001970:	6a410113          	addi	sp,sp,1700 # 80005010 <__BSS_END__+0x520>
80001974:	00000013          	nop
80001978:	00000013          	nop
8000197c:	00110123          	sb	ra,2(sp)
80001980:	00210703          	lb	a4,2(sp)
80001984:	fcc00393          	li	t2,-52
80001988:	00770463          	beq	a4,t2,80001990 <test_814+0x30>
8000198c:	e7cfe06f          	j	80000008 <fail>
80001990:	00120213          	addi	tp,tp,1 # 1 <_start-0x7fffffff>
80001994:	00200293          	li	t0,2
80001998:	fc5218e3          	bne	tp,t0,80001968 <test_814+0x8>

8000199c <test_815>:
8000199c:	32f00193          	li	gp,815
800019a0:	00000213          	li	tp,0
800019a4:	fbc00093          	li	ra,-68
800019a8:	00000013          	nop
800019ac:	00003117          	auipc	sp,0x3
800019b0:	66410113          	addi	sp,sp,1636 # 80005010 <__BSS_END__+0x520>
800019b4:	001101a3          	sb	ra,3(sp)
800019b8:	00310703          	lb	a4,3(sp)
800019bc:	fbc00393          	li	t2,-68
800019c0:	00770463          	beq	a4,t2,800019c8 <test_815+0x2c>
800019c4:	e44fe06f          	j	80000008 <fail>
800019c8:	00120213          	addi	tp,tp,1 # 1 <_start-0x7fffffff>
800019cc:	00200293          	li	t0,2
800019d0:	fc521ae3          	bne	tp,t0,800019a4 <test_815+0x8>

800019d4 <test_816>:
800019d4:	33000193          	li	gp,816
800019d8:	00000213          	li	tp,0
800019dc:	fbb00093          	li	ra,-69
800019e0:	00000013          	nop
800019e4:	00003117          	auipc	sp,0x3
800019e8:	62c10113          	addi	sp,sp,1580 # 80005010 <__BSS_END__+0x520>
800019ec:	00000013          	nop
800019f0:	00110223          	sb	ra,4(sp)
800019f4:	00410703          	lb	a4,4(sp)
800019f8:	fbb00393          	li	t2,-69
800019fc:	00770463          	beq	a4,t2,80001a04 <test_816+0x30>
80001a00:	e08fe06f          	j	80000008 <fail>
80001a04:	00120213          	addi	tp,tp,1 # 1 <_start-0x7fffffff>
80001a08:	00200293          	li	t0,2
80001a0c:	fc5218e3          	bne	tp,t0,800019dc <test_816+0x8>

80001a10 <test_817>:
80001a10:	33100193          	li	gp,817
80001a14:	00000213          	li	tp,0
80001a18:	fab00093          	li	ra,-85
80001a1c:	00000013          	nop
80001a20:	00000013          	nop
80001a24:	00003117          	auipc	sp,0x3
80001a28:	5ec10113          	addi	sp,sp,1516 # 80005010 <__BSS_END__+0x520>
80001a2c:	001102a3          	sb	ra,5(sp)
80001a30:	00510703          	lb	a4,5(sp)
80001a34:	fab00393          	li	t2,-85
80001a38:	00770463          	beq	a4,t2,80001a40 <test_817+0x30>
80001a3c:	dccfe06f          	j	80000008 <fail>
80001a40:	00120213          	addi	tp,tp,1 # 1 <_start-0x7fffffff>
80001a44:	00200293          	li	t0,2
80001a48:	fc5218e3          	bne	tp,t0,80001a18 <test_817+0x8>

80001a4c <test_818>:
80001a4c:	33200193          	li	gp,818
80001a50:	00000213          	li	tp,0
80001a54:	00003117          	auipc	sp,0x3
80001a58:	5bc10113          	addi	sp,sp,1468 # 80005010 <__BSS_END__+0x520>
80001a5c:	03300093          	li	ra,51
80001a60:	00110023          	sb	ra,0(sp)
80001a64:	00010703          	lb	a4,0(sp)
80001a68:	03300393          	li	t2,51
80001a6c:	00770463          	beq	a4,t2,80001a74 <test_818+0x28>
80001a70:	d98fe06f          	j	80000008 <fail>
80001a74:	00120213          	addi	tp,tp,1 # 1 <_start-0x7fffffff>
80001a78:	00200293          	li	t0,2
80001a7c:	fc521ce3          	bne	tp,t0,80001a54 <test_818+0x8>

80001a80 <test_819>:
80001a80:	33300193          	li	gp,819
80001a84:	00000213          	li	tp,0
80001a88:	00003117          	auipc	sp,0x3
80001a8c:	58810113          	addi	sp,sp,1416 # 80005010 <__BSS_END__+0x520>
80001a90:	02300093          	li	ra,35
80001a94:	00000013          	nop
80001a98:	001100a3          	sb	ra,1(sp)
80001a9c:	00110703          	lb	a4,1(sp)
80001aa0:	02300393          	li	t2,35
80001aa4:	00770463          	beq	a4,t2,80001aac <test_819+0x2c>
80001aa8:	d60fe06f          	j	80000008 <fail>
80001aac:	00120213          	addi	tp,tp,1 # 1 <_start-0x7fffffff>
80001ab0:	00200293          	li	t0,2
80001ab4:	fc521ae3          	bne	tp,t0,80001a88 <test_819+0x8>

80001ab8 <test_820>:
80001ab8:	33400193          	li	gp,820
80001abc:	00000213          	li	tp,0
80001ac0:	00003117          	auipc	sp,0x3
80001ac4:	55010113          	addi	sp,sp,1360 # 80005010 <__BSS_END__+0x520>
80001ac8:	02200093          	li	ra,34
80001acc:	00000013          	nop
80001ad0:	00000013          	nop
80001ad4:	00110123          	sb	ra,2(sp)
80001ad8:	00210703          	lb	a4,2(sp)
80001adc:	02200393          	li	t2,34
80001ae0:	00770463          	beq	a4,t2,80001ae8 <test_820+0x30>
80001ae4:	d24fe06f          	j	80000008 <fail>
80001ae8:	00120213          	addi	tp,tp,1 # 1 <_start-0x7fffffff>
80001aec:	00200293          	li	t0,2
80001af0:	fc5218e3          	bne	tp,t0,80001ac0 <test_820+0x8>

80001af4 <test_821>:
80001af4:	33500193          	li	gp,821
80001af8:	00000213          	li	tp,0
80001afc:	00003117          	auipc	sp,0x3
80001b00:	51410113          	addi	sp,sp,1300 # 80005010 <__BSS_END__+0x520>
80001b04:	00000013          	nop
80001b08:	01200093          	li	ra,18
80001b0c:	001101a3          	sb	ra,3(sp)
80001b10:	00310703          	lb	a4,3(sp)
80001b14:	01200393          	li	t2,18
80001b18:	00770463          	beq	a4,t2,80001b20 <test_821+0x2c>
80001b1c:	cecfe06f          	j	80000008 <fail>
80001b20:	00120213          	addi	tp,tp,1 # 1 <_start-0x7fffffff>
80001b24:	00200293          	li	t0,2
80001b28:	fc521ae3          	bne	tp,t0,80001afc <test_821+0x8>

80001b2c <test_822>:
80001b2c:	33600193          	li	gp,822
80001b30:	00000213          	li	tp,0
80001b34:	00003117          	auipc	sp,0x3
80001b38:	4dc10113          	addi	sp,sp,1244 # 80005010 <__BSS_END__+0x520>
80001b3c:	00000013          	nop
80001b40:	01100093          	li	ra,17
80001b44:	00000013          	nop
80001b48:	00110223          	sb	ra,4(sp)
80001b4c:	00410703          	lb	a4,4(sp)
80001b50:	01100393          	li	t2,17
80001b54:	00770463          	beq	a4,t2,80001b5c <test_822+0x30>
80001b58:	cb0fe06f          	j	80000008 <fail>
80001b5c:	00120213          	addi	tp,tp,1 # 1 <_start-0x7fffffff>
80001b60:	00200293          	li	t0,2
80001b64:	fc5218e3          	bne	tp,t0,80001b34 <test_822+0x8>

80001b68 <test_823>:
80001b68:	33700193          	li	gp,823
80001b6c:	00000213          	li	tp,0
80001b70:	00003117          	auipc	sp,0x3
80001b74:	4a010113          	addi	sp,sp,1184 # 80005010 <__BSS_END__+0x520>
80001b78:	00000013          	nop
80001b7c:	00000013          	nop
80001b80:	00100093          	li	ra,1
80001b84:	001102a3          	sb	ra,5(sp)
80001b88:	00510703          	lb	a4,5(sp)
80001b8c:	00100393          	li	t2,1
80001b90:	00770463          	beq	a4,t2,80001b98 <test_823+0x30>
80001b94:	c74fe06f          	j	80000008 <fail>
80001b98:	00120213          	addi	tp,tp,1 # 1 <_start-0x7fffffff>
80001b9c:	00200293          	li	t0,2
80001ba0:	fc5218e3          	bne	tp,t0,80001b70 <test_823+0x8>
80001ba4:	0ef00513          	li	a0,239
80001ba8:	00003597          	auipc	a1,0x3
80001bac:	46858593          	addi	a1,a1,1128 # 80005010 <__BSS_END__+0x520>
80001bb0:	00a581a3          	sb	a0,3(a1)

80001bb4 <test_902>:
80001bb4:	38600193          	li	gp,902
80001bb8:	ff0100b7          	lui	ra,0xff010
80001bbc:	f0008093          	addi	ra,ra,-256 # ff00ff00 <__global_pointer$+0x7f00acb8>
80001bc0:	0f0f1137          	lui	sp,0xf0f1
80001bc4:	f0f10113          	addi	sp,sp,-241 # f0f0f0f <_start-0x70f0f0f1>
80001bc8:	0020c733          	xor	a4,ra,sp
80001bcc:	f00ff3b7          	lui	t2,0xf00ff
80001bd0:	00f38393          	addi	t2,t2,15 # f00ff00f <__global_pointer$+0x700f9dc7>
80001bd4:	00770463          	beq	a4,t2,80001bdc <test_903>
80001bd8:	c30fe06f          	j	80000008 <fail>

80001bdc <test_903>:
80001bdc:	38700193          	li	gp,903
80001be0:	0ff010b7          	lui	ra,0xff01
80001be4:	ff008093          	addi	ra,ra,-16 # ff00ff0 <_start-0x700ff010>
80001be8:	f0f0f137          	lui	sp,0xf0f0f
80001bec:	0f010113          	addi	sp,sp,240 # f0f0f0f0 <__global_pointer$+0x70f09ea8>
80001bf0:	0020c733          	xor	a4,ra,sp
80001bf4:	ff0103b7          	lui	t2,0xff010
80001bf8:	f0038393          	addi	t2,t2,-256 # ff00ff00 <__global_pointer$+0x7f00acb8>
80001bfc:	00770463          	beq	a4,t2,80001c04 <test_904>
80001c00:	c08fe06f          	j	80000008 <fail>

80001c04 <test_904>:
80001c04:	38800193          	li	gp,904
80001c08:	00ff00b7          	lui	ra,0xff0
80001c0c:	0ff08093          	addi	ra,ra,255 # ff00ff <_start-0x7f00ff01>
80001c10:	0f0f1137          	lui	sp,0xf0f1
80001c14:	f0f10113          	addi	sp,sp,-241 # f0f0f0f <_start-0x70f0f0f1>
80001c18:	0020c733          	xor	a4,ra,sp
80001c1c:	0ff013b7          	lui	t2,0xff01
80001c20:	ff038393          	addi	t2,t2,-16 # ff00ff0 <_start-0x700ff010>
80001c24:	00770463          	beq	a4,t2,80001c2c <test_905>
80001c28:	be0fe06f          	j	80000008 <fail>

80001c2c <test_905>:
80001c2c:	38900193          	li	gp,905
80001c30:	f00ff0b7          	lui	ra,0xf00ff
80001c34:	00f08093          	addi	ra,ra,15 # f00ff00f <__global_pointer$+0x700f9dc7>
80001c38:	f0f0f137          	lui	sp,0xf0f0f
80001c3c:	0f010113          	addi	sp,sp,240 # f0f0f0f0 <__global_pointer$+0x70f09ea8>
80001c40:	0020c733          	xor	a4,ra,sp
80001c44:	00ff03b7          	lui	t2,0xff0
80001c48:	0ff38393          	addi	t2,t2,255 # ff00ff <_start-0x7f00ff01>
80001c4c:	00770463          	beq	a4,t2,80001c54 <test_906>
80001c50:	bb8fe06f          	j	80000008 <fail>

80001c54 <test_906>:
80001c54:	38a00193          	li	gp,906
80001c58:	ff0100b7          	lui	ra,0xff010
80001c5c:	f0008093          	addi	ra,ra,-256 # ff00ff00 <__global_pointer$+0x7f00acb8>
80001c60:	0f0f1137          	lui	sp,0xf0f1
80001c64:	f0f10113          	addi	sp,sp,-241 # f0f0f0f <_start-0x70f0f0f1>
80001c68:	0020c0b3          	xor	ra,ra,sp
80001c6c:	f00ff3b7          	lui	t2,0xf00ff
80001c70:	00f38393          	addi	t2,t2,15 # f00ff00f <__global_pointer$+0x700f9dc7>
80001c74:	00708463          	beq	ra,t2,80001c7c <test_907>
80001c78:	b90fe06f          	j	80000008 <fail>

80001c7c <test_907>:
80001c7c:	38b00193          	li	gp,907
80001c80:	ff0100b7          	lui	ra,0xff010
80001c84:	f0008093          	addi	ra,ra,-256 # ff00ff00 <__global_pointer$+0x7f00acb8>
80001c88:	0f0f1137          	lui	sp,0xf0f1
80001c8c:	f0f10113          	addi	sp,sp,-241 # f0f0f0f <_start-0x70f0f0f1>
80001c90:	0020c133          	xor	sp,ra,sp
80001c94:	f00ff3b7          	lui	t2,0xf00ff
80001c98:	00f38393          	addi	t2,t2,15 # f00ff00f <__global_pointer$+0x700f9dc7>
80001c9c:	00710463          	beq	sp,t2,80001ca4 <test_908>
80001ca0:	b68fe06f          	j	80000008 <fail>

80001ca4 <test_908>:
80001ca4:	38c00193          	li	gp,908
80001ca8:	ff0100b7          	lui	ra,0xff010
80001cac:	f0008093          	addi	ra,ra,-256 # ff00ff00 <__global_pointer$+0x7f00acb8>
80001cb0:	0010c0b3          	xor	ra,ra,ra
80001cb4:	00000393          	li	t2,0
80001cb8:	00708463          	beq	ra,t2,80001cc0 <test_909>
80001cbc:	b4cfe06f          	j	80000008 <fail>

80001cc0 <test_909>:
80001cc0:	38d00193          	li	gp,909
80001cc4:	00000213          	li	tp,0
80001cc8:	ff0100b7          	lui	ra,0xff010
80001ccc:	f0008093          	addi	ra,ra,-256 # ff00ff00 <__global_pointer$+0x7f00acb8>
80001cd0:	0f0f1137          	lui	sp,0xf0f1
80001cd4:	f0f10113          	addi	sp,sp,-241 # f0f0f0f <_start-0x70f0f0f1>
80001cd8:	0020c733          	xor	a4,ra,sp
80001cdc:	00070313          	mv	t1,a4
80001ce0:	00120213          	addi	tp,tp,1 # 1 <_start-0x7fffffff>
80001ce4:	00200293          	li	t0,2
80001ce8:	fe5210e3          	bne	tp,t0,80001cc8 <test_909+0x8>
80001cec:	f00ff3b7          	lui	t2,0xf00ff
80001cf0:	00f38393          	addi	t2,t2,15 # f00ff00f <__global_pointer$+0x700f9dc7>
80001cf4:	00730463          	beq	t1,t2,80001cfc <test_910>
80001cf8:	b10fe06f          	j	80000008 <fail>

80001cfc <test_910>:
80001cfc:	38e00193          	li	gp,910
80001d00:	00000213          	li	tp,0
80001d04:	0ff010b7          	lui	ra,0xff01
80001d08:	ff008093          	addi	ra,ra,-16 # ff00ff0 <_start-0x700ff010>
80001d0c:	f0f0f137          	lui	sp,0xf0f0f
80001d10:	0f010113          	addi	sp,sp,240 # f0f0f0f0 <__global_pointer$+0x70f09ea8>
80001d14:	0020c733          	xor	a4,ra,sp
80001d18:	00000013          	nop
80001d1c:	00070313          	mv	t1,a4
80001d20:	00120213          	addi	tp,tp,1 # 1 <_start-0x7fffffff>
80001d24:	00200293          	li	t0,2
80001d28:	fc521ee3          	bne	tp,t0,80001d04 <test_910+0x8>
80001d2c:	ff0103b7          	lui	t2,0xff010
80001d30:	f0038393          	addi	t2,t2,-256 # ff00ff00 <__global_pointer$+0x7f00acb8>
80001d34:	00730463          	beq	t1,t2,80001d3c <test_911>
80001d38:	ad0fe06f          	j	80000008 <fail>

80001d3c <test_911>:
80001d3c:	38f00193          	li	gp,911
80001d40:	00000213          	li	tp,0
80001d44:	00ff00b7          	lui	ra,0xff0
80001d48:	0ff08093          	addi	ra,ra,255 # ff00ff <_start-0x7f00ff01>
80001d4c:	0f0f1137          	lui	sp,0xf0f1
80001d50:	f0f10113          	addi	sp,sp,-241 # f0f0f0f <_start-0x70f0f0f1>
80001d54:	0020c733          	xor	a4,ra,sp
80001d58:	00000013          	nop
80001d5c:	00000013          	nop
80001d60:	00070313          	mv	t1,a4
80001d64:	00120213          	addi	tp,tp,1 # 1 <_start-0x7fffffff>
80001d68:	00200293          	li	t0,2
80001d6c:	fc521ce3          	bne	tp,t0,80001d44 <test_911+0x8>
80001d70:	0ff013b7          	lui	t2,0xff01
80001d74:	ff038393          	addi	t2,t2,-16 # ff00ff0 <_start-0x700ff010>
80001d78:	00730463          	beq	t1,t2,80001d80 <test_912>
80001d7c:	a8cfe06f          	j	80000008 <fail>

80001d80 <test_912>:
80001d80:	39000193          	li	gp,912
80001d84:	00000213          	li	tp,0
80001d88:	ff0100b7          	lui	ra,0xff010
80001d8c:	f0008093          	addi	ra,ra,-256 # ff00ff00 <__global_pointer$+0x7f00acb8>
80001d90:	0f0f1137          	lui	sp,0xf0f1
80001d94:	f0f10113          	addi	sp,sp,-241 # f0f0f0f <_start-0x70f0f0f1>
80001d98:	0020c733          	xor	a4,ra,sp
80001d9c:	00120213          	addi	tp,tp,1 # 1 <_start-0x7fffffff>
80001da0:	00200293          	li	t0,2
80001da4:	fe5212e3          	bne	tp,t0,80001d88 <test_912+0x8>
80001da8:	f00ff3b7          	lui	t2,0xf00ff
80001dac:	00f38393          	addi	t2,t2,15 # f00ff00f <__global_pointer$+0x700f9dc7>
80001db0:	00770463          	beq	a4,t2,80001db8 <test_913>
80001db4:	a54fe06f          	j	80000008 <fail>

80001db8 <test_913>:
80001db8:	39100193          	li	gp,913
80001dbc:	00000213          	li	tp,0
80001dc0:	0ff010b7          	lui	ra,0xff01
80001dc4:	ff008093          	addi	ra,ra,-16 # ff00ff0 <_start-0x700ff010>
80001dc8:	f0f0f137          	lui	sp,0xf0f0f
80001dcc:	0f010113          	addi	sp,sp,240 # f0f0f0f0 <__global_pointer$+0x70f09ea8>
80001dd0:	00000013          	nop
80001dd4:	0020c733          	xor	a4,ra,sp
80001dd8:	00120213          	addi	tp,tp,1 # 1 <_start-0x7fffffff>
80001ddc:	00200293          	li	t0,2
80001de0:	fe5210e3          	bne	tp,t0,80001dc0 <test_913+0x8>
80001de4:	ff0103b7          	lui	t2,0xff010
80001de8:	f0038393          	addi	t2,t2,-256 # ff00ff00 <__global_pointer$+0x7f00acb8>
80001dec:	00770463          	beq	a4,t2,80001df4 <test_914>
80001df0:	a18fe06f          	j	80000008 <fail>

80001df4 <test_914>:
80001df4:	39200193          	li	gp,914
80001df8:	00000213          	li	tp,0
80001dfc:	00ff00b7          	lui	ra,0xff0
80001e00:	0ff08093          	addi	ra,ra,255 # ff00ff <_start-0x7f00ff01>
80001e04:	0f0f1137          	lui	sp,0xf0f1
80001e08:	f0f10113          	addi	sp,sp,-241 # f0f0f0f <_start-0x70f0f0f1>
80001e0c:	00000013          	nop
80001e10:	00000013          	nop
80001e14:	0020c733          	xor	a4,ra,sp
80001e18:	00120213          	addi	tp,tp,1 # 1 <_start-0x7fffffff>
80001e1c:	00200293          	li	t0,2
80001e20:	fc521ee3          	bne	tp,t0,80001dfc <test_914+0x8>
80001e24:	0ff013b7          	lui	t2,0xff01
80001e28:	ff038393          	addi	t2,t2,-16 # ff00ff0 <_start-0x700ff010>
80001e2c:	00770463          	beq	a4,t2,80001e34 <test_915>
80001e30:	9d8fe06f          	j	80000008 <fail>

80001e34 <test_915>:
80001e34:	39300193          	li	gp,915
80001e38:	00000213          	li	tp,0
80001e3c:	ff0100b7          	lui	ra,0xff010
80001e40:	f0008093          	addi	ra,ra,-256 # ff00ff00 <__global_pointer$+0x7f00acb8>
80001e44:	00000013          	nop
80001e48:	0f0f1137          	lui	sp,0xf0f1
80001e4c:	f0f10113          	addi	sp,sp,-241 # f0f0f0f <_start-0x70f0f0f1>
80001e50:	0020c733          	xor	a4,ra,sp
80001e54:	00120213          	addi	tp,tp,1 # 1 <_start-0x7fffffff>
80001e58:	00200293          	li	t0,2
80001e5c:	fe5210e3          	bne	tp,t0,80001e3c <test_915+0x8>
80001e60:	f00ff3b7          	lui	t2,0xf00ff
80001e64:	00f38393          	addi	t2,t2,15 # f00ff00f <__global_pointer$+0x700f9dc7>
80001e68:	00770463          	beq	a4,t2,80001e70 <test_916>
80001e6c:	99cfe06f          	j	80000008 <fail>

80001e70 <test_916>:
80001e70:	39400193          	li	gp,916
80001e74:	00000213          	li	tp,0
80001e78:	0ff010b7          	lui	ra,0xff01
80001e7c:	ff008093          	addi	ra,ra,-16 # ff00ff0 <_start-0x700ff010>
80001e80:	00000013          	nop
80001e84:	f0f0f137          	lui	sp,0xf0f0f
80001e88:	0f010113          	addi	sp,sp,240 # f0f0f0f0 <__global_pointer$+0x70f09ea8>
80001e8c:	00000013          	nop
80001e90:	0020c733          	xor	a4,ra,sp
80001e94:	00120213          	addi	tp,tp,1 # 1 <_start-0x7fffffff>
80001e98:	00200293          	li	t0,2
80001e9c:	fc521ee3          	bne	tp,t0,80001e78 <test_916+0x8>
80001ea0:	ff0103b7          	lui	t2,0xff010
80001ea4:	f0038393          	addi	t2,t2,-256 # ff00ff00 <__global_pointer$+0x7f00acb8>
80001ea8:	00770463          	beq	a4,t2,80001eb0 <test_917>
80001eac:	95cfe06f          	j	80000008 <fail>

80001eb0 <test_917>:
80001eb0:	39500193          	li	gp,917
80001eb4:	00000213          	li	tp,0
80001eb8:	00ff00b7          	lui	ra,0xff0
80001ebc:	0ff08093          	addi	ra,ra,255 # ff00ff <_start-0x7f00ff01>
80001ec0:	00000013          	nop
80001ec4:	00000013          	nop
80001ec8:	0f0f1137          	lui	sp,0xf0f1
80001ecc:	f0f10113          	addi	sp,sp,-241 # f0f0f0f <_start-0x70f0f0f1>
80001ed0:	0020c733          	xor	a4,ra,sp
80001ed4:	00120213          	addi	tp,tp,1 # 1 <_start-0x7fffffff>
80001ed8:	00200293          	li	t0,2
80001edc:	fc521ee3          	bne	tp,t0,80001eb8 <test_917+0x8>
80001ee0:	0ff013b7          	lui	t2,0xff01
80001ee4:	ff038393          	addi	t2,t2,-16 # ff00ff0 <_start-0x700ff010>
80001ee8:	00770463          	beq	a4,t2,80001ef0 <test_918>
80001eec:	91cfe06f          	j	80000008 <fail>

80001ef0 <test_918>:
80001ef0:	39600193          	li	gp,918
80001ef4:	00000213          	li	tp,0
80001ef8:	0f0f1137          	lui	sp,0xf0f1
80001efc:	f0f10113          	addi	sp,sp,-241 # f0f0f0f <_start-0x70f0f0f1>
80001f00:	ff0100b7          	lui	ra,0xff010
80001f04:	f0008093          	addi	ra,ra,-256 # ff00ff00 <__global_pointer$+0x7f00acb8>
80001f08:	0020c733          	xor	a4,ra,sp
80001f0c:	00120213          	addi	tp,tp,1 # 1 <_start-0x7fffffff>
80001f10:	00200293          	li	t0,2
80001f14:	fe5212e3          	bne	tp,t0,80001ef8 <test_918+0x8>
80001f18:	f00ff3b7          	lui	t2,0xf00ff
80001f1c:	00f38393          	addi	t2,t2,15 # f00ff00f <__global_pointer$+0x700f9dc7>
80001f20:	00770463          	beq	a4,t2,80001f28 <test_919>
80001f24:	8e4fe06f          	j	80000008 <fail>

80001f28 <test_919>:
80001f28:	39700193          	li	gp,919
80001f2c:	00000213          	li	tp,0
80001f30:	f0f0f137          	lui	sp,0xf0f0f
80001f34:	0f010113          	addi	sp,sp,240 # f0f0f0f0 <__global_pointer$+0x70f09ea8>
80001f38:	0ff010b7          	lui	ra,0xff01
80001f3c:	ff008093          	addi	ra,ra,-16 # ff00ff0 <_start-0x700ff010>
80001f40:	00000013          	nop
80001f44:	0020c733          	xor	a4,ra,sp
80001f48:	00120213          	addi	tp,tp,1 # 1 <_start-0x7fffffff>
80001f4c:	00200293          	li	t0,2
80001f50:	fe5210e3          	bne	tp,t0,80001f30 <test_919+0x8>
80001f54:	ff0103b7          	lui	t2,0xff010
80001f58:	f0038393          	addi	t2,t2,-256 # ff00ff00 <__global_pointer$+0x7f00acb8>
80001f5c:	00770463          	beq	a4,t2,80001f64 <test_920>
80001f60:	8a8fe06f          	j	80000008 <fail>

80001f64 <test_920>:
80001f64:	39800193          	li	gp,920
80001f68:	00000213          	li	tp,0
80001f6c:	0f0f1137          	lui	sp,0xf0f1
80001f70:	f0f10113          	addi	sp,sp,-241 # f0f0f0f <_start-0x70f0f0f1>
80001f74:	00ff00b7          	lui	ra,0xff0
80001f78:	0ff08093          	addi	ra,ra,255 # ff00ff <_start-0x7f00ff01>
80001f7c:	00000013          	nop
80001f80:	00000013          	nop
80001f84:	0020c733          	xor	a4,ra,sp
80001f88:	00120213          	addi	tp,tp,1 # 1 <_start-0x7fffffff>
80001f8c:	00200293          	li	t0,2
80001f90:	fc521ee3          	bne	tp,t0,80001f6c <test_920+0x8>
80001f94:	0ff013b7          	lui	t2,0xff01
80001f98:	ff038393          	addi	t2,t2,-16 # ff00ff0 <_start-0x700ff010>
80001f9c:	00770463          	beq	a4,t2,80001fa4 <test_921>
80001fa0:	868fe06f          	j	80000008 <fail>

80001fa4 <test_921>:
80001fa4:	39900193          	li	gp,921
80001fa8:	00000213          	li	tp,0
80001fac:	0f0f1137          	lui	sp,0xf0f1
80001fb0:	f0f10113          	addi	sp,sp,-241 # f0f0f0f <_start-0x70f0f0f1>
80001fb4:	00000013          	nop
80001fb8:	ff0100b7          	lui	ra,0xff010
80001fbc:	f0008093          	addi	ra,ra,-256 # ff00ff00 <__global_pointer$+0x7f00acb8>
80001fc0:	0020c733          	xor	a4,ra,sp
80001fc4:	00120213          	addi	tp,tp,1 # 1 <_start-0x7fffffff>
80001fc8:	00200293          	li	t0,2
80001fcc:	fe5210e3          	bne	tp,t0,80001fac <test_921+0x8>
80001fd0:	f00ff3b7          	lui	t2,0xf00ff
80001fd4:	00f38393          	addi	t2,t2,15 # f00ff00f <__global_pointer$+0x700f9dc7>
80001fd8:	00770463          	beq	a4,t2,80001fe0 <test_922>
80001fdc:	82cfe06f          	j	80000008 <fail>

80001fe0 <test_922>:
80001fe0:	39a00193          	li	gp,922
80001fe4:	00000213          	li	tp,0
80001fe8:	f0f0f137          	lui	sp,0xf0f0f
80001fec:	0f010113          	addi	sp,sp,240 # f0f0f0f0 <__global_pointer$+0x70f09ea8>
80001ff0:	00000013          	nop
80001ff4:	0ff010b7          	lui	ra,0xff01
80001ff8:	ff008093          	addi	ra,ra,-16 # ff00ff0 <_start-0x700ff010>
80001ffc:	00000013          	nop
80002000:	0020c733          	xor	a4,ra,sp
80002004:	00120213          	addi	tp,tp,1 # 1 <_start-0x7fffffff>
80002008:	00200293          	li	t0,2
8000200c:	fc521ee3          	bne	tp,t0,80001fe8 <test_922+0x8>
80002010:	ff0103b7          	lui	t2,0xff010
80002014:	f0038393          	addi	t2,t2,-256 # ff00ff00 <__global_pointer$+0x7f00acb8>
80002018:	00770463          	beq	a4,t2,80002020 <test_923>
8000201c:	fedfd06f          	j	80000008 <fail>

80002020 <test_923>:
80002020:	39b00193          	li	gp,923
80002024:	00000213          	li	tp,0
80002028:	0f0f1137          	lui	sp,0xf0f1
8000202c:	f0f10113          	addi	sp,sp,-241 # f0f0f0f <_start-0x70f0f0f1>
80002030:	00000013          	nop
80002034:	00000013          	nop
80002038:	00ff00b7          	lui	ra,0xff0
8000203c:	0ff08093          	addi	ra,ra,255 # ff00ff <_start-0x7f00ff01>
80002040:	0020c733          	xor	a4,ra,sp
80002044:	00120213          	addi	tp,tp,1 # 1 <_start-0x7fffffff>
80002048:	00200293          	li	t0,2
8000204c:	fc521ee3          	bne	tp,t0,80002028 <test_923+0x8>
80002050:	0ff013b7          	lui	t2,0xff01
80002054:	ff038393          	addi	t2,t2,-16 # ff00ff0 <_start-0x700ff010>
80002058:	00770463          	beq	a4,t2,80002060 <test_924>
8000205c:	fadfd06f          	j	80000008 <fail>

80002060 <test_924>:
80002060:	39c00193          	li	gp,924
80002064:	ff0100b7          	lui	ra,0xff010
80002068:	f0008093          	addi	ra,ra,-256 # ff00ff00 <__global_pointer$+0x7f00acb8>
8000206c:	00104133          	xor	sp,zero,ra
80002070:	ff0103b7          	lui	t2,0xff010
80002074:	f0038393          	addi	t2,t2,-256 # ff00ff00 <__global_pointer$+0x7f00acb8>
80002078:	00710463          	beq	sp,t2,80002080 <test_925>
8000207c:	f8dfd06f          	j	80000008 <fail>

80002080 <test_925>:
80002080:	39d00193          	li	gp,925
80002084:	00ff00b7          	lui	ra,0xff0
80002088:	0ff08093          	addi	ra,ra,255 # ff00ff <_start-0x7f00ff01>
8000208c:	0000c133          	xor	sp,ra,zero
80002090:	00ff03b7          	lui	t2,0xff0
80002094:	0ff38393          	addi	t2,t2,255 # ff00ff <_start-0x7f00ff01>
80002098:	00710463          	beq	sp,t2,800020a0 <test_926>
8000209c:	f6dfd06f          	j	80000008 <fail>

800020a0 <test_926>:
800020a0:	39e00193          	li	gp,926
800020a4:	000040b3          	xor	ra,zero,zero
800020a8:	00000393          	li	t2,0
800020ac:	00708463          	beq	ra,t2,800020b4 <test_927>
800020b0:	f59fd06f          	j	80000008 <fail>

800020b4 <test_927>:
800020b4:	39f00193          	li	gp,927
800020b8:	111110b7          	lui	ra,0x11111
800020bc:	11108093          	addi	ra,ra,273 # 11111111 <_start-0x6eeeeeef>
800020c0:	22222137          	lui	sp,0x22222
800020c4:	22210113          	addi	sp,sp,546 # 22222222 <_start-0x5dddddde>
800020c8:	0020c033          	xor	zero,ra,sp
800020cc:	00000393          	li	t2,0
800020d0:	00700463          	beq	zero,t2,800020d8 <test_1002>
800020d4:	f35fd06f          	j	80000008 <fail>

800020d8 <test_1002>:
800020d8:	3ea00193          	li	gp,1002
800020dc:	00000093          	li	ra,0
800020e0:	00100113          	li	sp,1
800020e4:	00209863          	bne	ra,sp,800020f4 <test_1002+0x1c>
800020e8:	00300463          	beq	zero,gp,800020f0 <test_1002+0x18>
800020ec:	f1dfd06f          	j	80000008 <fail>
800020f0:	00301863          	bne	zero,gp,80002100 <test_1003>
800020f4:	fe209ee3          	bne	ra,sp,800020f0 <test_1002+0x18>
800020f8:	00300463          	beq	zero,gp,80002100 <test_1003>
800020fc:	f0dfd06f          	j	80000008 <fail>

80002100 <test_1003>:
80002100:	3eb00193          	li	gp,1003
80002104:	00100093          	li	ra,1
80002108:	00000113          	li	sp,0
8000210c:	00209863          	bne	ra,sp,8000211c <test_1003+0x1c>
80002110:	00300463          	beq	zero,gp,80002118 <test_1003+0x18>
80002114:	ef5fd06f          	j	80000008 <fail>
80002118:	00301863          	bne	zero,gp,80002128 <test_1004>
8000211c:	fe209ee3          	bne	ra,sp,80002118 <test_1003+0x18>
80002120:	00300463          	beq	zero,gp,80002128 <test_1004>
80002124:	ee5fd06f          	j	80000008 <fail>

80002128 <test_1004>:
80002128:	3ec00193          	li	gp,1004
8000212c:	fff00093          	li	ra,-1
80002130:	00100113          	li	sp,1
80002134:	00209863          	bne	ra,sp,80002144 <test_1004+0x1c>
80002138:	00300463          	beq	zero,gp,80002140 <test_1004+0x18>
8000213c:	ecdfd06f          	j	80000008 <fail>
80002140:	00301863          	bne	zero,gp,80002150 <test_1005>
80002144:	fe209ee3          	bne	ra,sp,80002140 <test_1004+0x18>
80002148:	00300463          	beq	zero,gp,80002150 <test_1005>
8000214c:	ebdfd06f          	j	80000008 <fail>

80002150 <test_1005>:
80002150:	3ed00193          	li	gp,1005
80002154:	00100093          	li	ra,1
80002158:	fff00113          	li	sp,-1
8000215c:	00209863          	bne	ra,sp,8000216c <test_1005+0x1c>
80002160:	00300463          	beq	zero,gp,80002168 <test_1005+0x18>
80002164:	ea5fd06f          	j	80000008 <fail>
80002168:	00301863          	bne	zero,gp,80002178 <test_1006>
8000216c:	fe209ee3          	bne	ra,sp,80002168 <test_1005+0x18>
80002170:	00300463          	beq	zero,gp,80002178 <test_1006>
80002174:	e95fd06f          	j	80000008 <fail>

80002178 <test_1006>:
80002178:	3ee00193          	li	gp,1006
8000217c:	00000093          	li	ra,0
80002180:	00000113          	li	sp,0
80002184:	00209463          	bne	ra,sp,8000218c <test_1006+0x14>
80002188:	00301663          	bne	zero,gp,80002194 <test_1006+0x1c>
8000218c:	00300463          	beq	zero,gp,80002194 <test_1006+0x1c>
80002190:	e79fd06f          	j	80000008 <fail>
80002194:	fe209ce3          	bne	ra,sp,8000218c <test_1006+0x14>

80002198 <test_1007>:
80002198:	3ef00193          	li	gp,1007
8000219c:	00100093          	li	ra,1
800021a0:	00100113          	li	sp,1
800021a4:	00209463          	bne	ra,sp,800021ac <test_1007+0x14>
800021a8:	00301663          	bne	zero,gp,800021b4 <test_1007+0x1c>
800021ac:	00300463          	beq	zero,gp,800021b4 <test_1007+0x1c>
800021b0:	e59fd06f          	j	80000008 <fail>
800021b4:	fe209ce3          	bne	ra,sp,800021ac <test_1007+0x14>

800021b8 <test_1008>:
800021b8:	3f000193          	li	gp,1008
800021bc:	fff00093          	li	ra,-1
800021c0:	fff00113          	li	sp,-1
800021c4:	00209463          	bne	ra,sp,800021cc <test_1008+0x14>
800021c8:	00301663          	bne	zero,gp,800021d4 <test_1008+0x1c>
800021cc:	00300463          	beq	zero,gp,800021d4 <test_1008+0x1c>
800021d0:	e39fd06f          	j	80000008 <fail>
800021d4:	fe209ce3          	bne	ra,sp,800021cc <test_1008+0x14>

800021d8 <test_1009>:
800021d8:	3f100193          	li	gp,1009
800021dc:	00000213          	li	tp,0
800021e0:	00000093          	li	ra,0
800021e4:	00000113          	li	sp,0
800021e8:	00208463          	beq	ra,sp,800021f0 <test_1009+0x18>
800021ec:	e1dfd06f          	j	80000008 <fail>
800021f0:	00120213          	addi	tp,tp,1 # 1 <_start-0x7fffffff>
800021f4:	00200293          	li	t0,2
800021f8:	fe5214e3          	bne	tp,t0,800021e0 <test_1009+0x8>

800021fc <test_1010>:
800021fc:	3f200193          	li	gp,1010
80002200:	00000213          	li	tp,0
80002204:	00000093          	li	ra,0
80002208:	00000113          	li	sp,0
8000220c:	00000013          	nop
80002210:	00208463          	beq	ra,sp,80002218 <test_1010+0x1c>
80002214:	df5fd06f          	j	80000008 <fail>
80002218:	00120213          	addi	tp,tp,1 # 1 <_start-0x7fffffff>
8000221c:	00200293          	li	t0,2
80002220:	fe5212e3          	bne	tp,t0,80002204 <test_1010+0x8>

80002224 <test_1011>:
80002224:	3f300193          	li	gp,1011
80002228:	00000213          	li	tp,0
8000222c:	00000093          	li	ra,0
80002230:	00000113          	li	sp,0
80002234:	00000013          	nop
80002238:	00000013          	nop
8000223c:	00208463          	beq	ra,sp,80002244 <test_1011+0x20>
80002240:	dc9fd06f          	j	80000008 <fail>
80002244:	00120213          	addi	tp,tp,1 # 1 <_start-0x7fffffff>
80002248:	00200293          	li	t0,2
8000224c:	fe5210e3          	bne	tp,t0,8000222c <test_1011+0x8>

80002250 <test_1012>:
80002250:	3f400193          	li	gp,1012
80002254:	00000213          	li	tp,0
80002258:	00000093          	li	ra,0
8000225c:	00000013          	nop
80002260:	00000113          	li	sp,0
80002264:	00208463          	beq	ra,sp,8000226c <test_1012+0x1c>
80002268:	da1fd06f          	j	80000008 <fail>
8000226c:	00120213          	addi	tp,tp,1 # 1 <_start-0x7fffffff>
80002270:	00200293          	li	t0,2
80002274:	fe5212e3          	bne	tp,t0,80002258 <test_1012+0x8>

80002278 <test_1013>:
80002278:	3f500193          	li	gp,1013
8000227c:	00000213          	li	tp,0
80002280:	00000093          	li	ra,0
80002284:	00000013          	nop
80002288:	00000113          	li	sp,0
8000228c:	00000013          	nop
80002290:	00208463          	beq	ra,sp,80002298 <test_1013+0x20>
80002294:	d75fd06f          	j	80000008 <fail>
80002298:	00120213          	addi	tp,tp,1 # 1 <_start-0x7fffffff>
8000229c:	00200293          	li	t0,2
800022a0:	fe5210e3          	bne	tp,t0,80002280 <test_1013+0x8>

800022a4 <test_1014>:
800022a4:	3f600193          	li	gp,1014
800022a8:	00000213          	li	tp,0
800022ac:	00000093          	li	ra,0
800022b0:	00000013          	nop
800022b4:	00000013          	nop
800022b8:	00000113          	li	sp,0
800022bc:	00208463          	beq	ra,sp,800022c4 <test_1014+0x20>
800022c0:	d49fd06f          	j	80000008 <fail>
800022c4:	00120213          	addi	tp,tp,1 # 1 <_start-0x7fffffff>
800022c8:	00200293          	li	t0,2
800022cc:	fe5210e3          	bne	tp,t0,800022ac <test_1014+0x8>

800022d0 <test_1015>:
800022d0:	3f700193          	li	gp,1015
800022d4:	00000213          	li	tp,0
800022d8:	00000093          	li	ra,0
800022dc:	00000113          	li	sp,0
800022e0:	00208463          	beq	ra,sp,800022e8 <test_1015+0x18>
800022e4:	d25fd06f          	j	80000008 <fail>
800022e8:	00120213          	addi	tp,tp,1 # 1 <_start-0x7fffffff>
800022ec:	00200293          	li	t0,2
800022f0:	fe5214e3          	bne	tp,t0,800022d8 <test_1015+0x8>

800022f4 <test_1016>:
800022f4:	3f800193          	li	gp,1016
800022f8:	00000213          	li	tp,0
800022fc:	00000093          	li	ra,0
80002300:	00000113          	li	sp,0
80002304:	00000013          	nop
80002308:	00208463          	beq	ra,sp,80002310 <test_1016+0x1c>
8000230c:	cfdfd06f          	j	80000008 <fail>
80002310:	00120213          	addi	tp,tp,1 # 1 <_start-0x7fffffff>
80002314:	00200293          	li	t0,2
80002318:	fe5212e3          	bne	tp,t0,800022fc <test_1016+0x8>

8000231c <test_1017>:
8000231c:	3f900193          	li	gp,1017
80002320:	00000213          	li	tp,0
80002324:	00000093          	li	ra,0
80002328:	00000113          	li	sp,0
8000232c:	00000013          	nop
80002330:	00000013          	nop
80002334:	00208463          	beq	ra,sp,8000233c <test_1017+0x20>
80002338:	cd1fd06f          	j	80000008 <fail>
8000233c:	00120213          	addi	tp,tp,1 # 1 <_start-0x7fffffff>
80002340:	00200293          	li	t0,2
80002344:	fe5210e3          	bne	tp,t0,80002324 <test_1017+0x8>

80002348 <test_1018>:
80002348:	3fa00193          	li	gp,1018
8000234c:	00000213          	li	tp,0
80002350:	00000093          	li	ra,0
80002354:	00000013          	nop
80002358:	00000113          	li	sp,0
8000235c:	00208463          	beq	ra,sp,80002364 <test_1018+0x1c>
80002360:	ca9fd06f          	j	80000008 <fail>
80002364:	00120213          	addi	tp,tp,1 # 1 <_start-0x7fffffff>
80002368:	00200293          	li	t0,2
8000236c:	fe5212e3          	bne	tp,t0,80002350 <test_1018+0x8>

80002370 <test_1019>:
80002370:	3fb00193          	li	gp,1019
80002374:	00000213          	li	tp,0
80002378:	00000093          	li	ra,0
8000237c:	00000013          	nop
80002380:	00000113          	li	sp,0
80002384:	00000013          	nop
80002388:	00208463          	beq	ra,sp,80002390 <test_1019+0x20>
8000238c:	c7dfd06f          	j	80000008 <fail>
80002390:	00120213          	addi	tp,tp,1 # 1 <_start-0x7fffffff>
80002394:	00200293          	li	t0,2
80002398:	fe5210e3          	bne	tp,t0,80002378 <test_1019+0x8>

8000239c <test_1020>:
8000239c:	3fc00193          	li	gp,1020
800023a0:	00000213          	li	tp,0
800023a4:	00000093          	li	ra,0
800023a8:	00000013          	nop
800023ac:	00000013          	nop
800023b0:	00000113          	li	sp,0
800023b4:	00208463          	beq	ra,sp,800023bc <test_1020+0x20>
800023b8:	c51fd06f          	j	80000008 <fail>
800023bc:	00120213          	addi	tp,tp,1 # 1 <_start-0x7fffffff>
800023c0:	00200293          	li	t0,2
800023c4:	fe5210e3          	bne	tp,t0,800023a4 <test_1020+0x8>

800023c8 <test_1021>:
800023c8:	3fd00193          	li	gp,1021
800023cc:	00100093          	li	ra,1
800023d0:	00009a63          	bnez	ra,800023e4 <test_1021+0x1c>
800023d4:	00108093          	addi	ra,ra,1
800023d8:	00108093          	addi	ra,ra,1
800023dc:	00108093          	addi	ra,ra,1
800023e0:	00108093          	addi	ra,ra,1
800023e4:	00108093          	addi	ra,ra,1
800023e8:	00108093          	addi	ra,ra,1
800023ec:	00300393          	li	t2,3
800023f0:	00708463          	beq	ra,t2,800023f8 <jal_test_2>
800023f4:	c15fd06f          	j	80000008 <fail>

800023f8 <jal_test_2>:
800023f8:	44e00193          	li	gp,1102
800023fc:	00000093          	li	ra,0
80002400:	0100026f          	jal	tp,80002410 <jal_target_2>

80002404 <jal_linkaddr_2>:
80002404:	00000013          	nop
80002408:	00000013          	nop
8000240c:	bfdfd06f          	j	80000008 <fail>

80002410 <jal_target_2>:
80002410:	00000117          	auipc	sp,0x0
80002414:	ff410113          	addi	sp,sp,-12 # 80002404 <jal_linkaddr_2>
80002418:	00410463          	beq	sp,tp,80002420 <test_1103>
8000241c:	bedfd06f          	j	80000008 <fail>

80002420 <test_1103>:
80002420:	44f00193          	li	gp,1103
80002424:	00100093          	li	ra,1
80002428:	0140006f          	j	8000243c <test_1103+0x1c>
8000242c:	00108093          	addi	ra,ra,1
80002430:	00108093          	addi	ra,ra,1
80002434:	00108093          	addi	ra,ra,1
80002438:	00108093          	addi	ra,ra,1
8000243c:	00108093          	addi	ra,ra,1
80002440:	00108093          	addi	ra,ra,1
80002444:	00300393          	li	t2,3
80002448:	00708463          	beq	ra,t2,80002450 <test_1202>
8000244c:	bbdfd06f          	j	80000008 <fail>

80002450 <test_1202>:
80002450:	4b200193          	li	gp,1202
80002454:	00ff07b7          	lui	a5,0xff0
80002458:	0ff78793          	addi	a5,a5,255 # ff00ff <_start-0x7f00ff01>
8000245c:	00003097          	auipc	ra,0x3
80002460:	bd408093          	addi	ra,ra,-1068 # 80005030 <__BSS_END__+0x540>
80002464:	0000a703          	lw	a4,0(ra)
80002468:	00ff03b7          	lui	t2,0xff0
8000246c:	0ff38393          	addi	t2,t2,255 # ff00ff <_start-0x7f00ff01>
80002470:	00770463          	beq	a4,t2,80002478 <test_1203>
80002474:	b95fd06f          	j	80000008 <fail>

80002478 <test_1203>:
80002478:	4b300193          	li	gp,1203
8000247c:	ff0107b7          	lui	a5,0xff010
80002480:	f0078793          	addi	a5,a5,-256 # ff00ff00 <__global_pointer$+0x7f00acb8>
80002484:	00003097          	auipc	ra,0x3
80002488:	bac08093          	addi	ra,ra,-1108 # 80005030 <__BSS_END__+0x540>
8000248c:	0040a703          	lw	a4,4(ra)
80002490:	ff0103b7          	lui	t2,0xff010
80002494:	f0038393          	addi	t2,t2,-256 # ff00ff00 <__global_pointer$+0x7f00acb8>
80002498:	00770463          	beq	a4,t2,800024a0 <test_1204>
8000249c:	b6dfd06f          	j	80000008 <fail>

800024a0 <test_1204>:
800024a0:	4b400193          	li	gp,1204
800024a4:	0ff017b7          	lui	a5,0xff01
800024a8:	ff078793          	addi	a5,a5,-16 # ff00ff0 <_start-0x700ff010>
800024ac:	00003097          	auipc	ra,0x3
800024b0:	b8408093          	addi	ra,ra,-1148 # 80005030 <__BSS_END__+0x540>
800024b4:	0080a703          	lw	a4,8(ra)
800024b8:	0ff013b7          	lui	t2,0xff01
800024bc:	ff038393          	addi	t2,t2,-16 # ff00ff0 <_start-0x700ff010>
800024c0:	00770463          	beq	a4,t2,800024c8 <test_1205>
800024c4:	b45fd06f          	j	80000008 <fail>

800024c8 <test_1205>:
800024c8:	4b500193          	li	gp,1205
800024cc:	f00ff7b7          	lui	a5,0xf00ff
800024d0:	00f78793          	addi	a5,a5,15 # f00ff00f <__global_pointer$+0x700f9dc7>
800024d4:	00003097          	auipc	ra,0x3
800024d8:	b5c08093          	addi	ra,ra,-1188 # 80005030 <__BSS_END__+0x540>
800024dc:	00c0a703          	lw	a4,12(ra)
800024e0:	f00ff3b7          	lui	t2,0xf00ff
800024e4:	00f38393          	addi	t2,t2,15 # f00ff00f <__global_pointer$+0x700f9dc7>
800024e8:	00770463          	beq	a4,t2,800024f0 <test_1206>
800024ec:	b1dfd06f          	j	80000008 <fail>

800024f0 <test_1206>:
800024f0:	4b600193          	li	gp,1206
800024f4:	00ff07b7          	lui	a5,0xff0
800024f8:	0ff78793          	addi	a5,a5,255 # ff00ff <_start-0x7f00ff01>
800024fc:	00003097          	auipc	ra,0x3
80002500:	b4008093          	addi	ra,ra,-1216 # 8000503c <__BSS_END__+0x54c>
80002504:	ff40a703          	lw	a4,-12(ra)
80002508:	00ff03b7          	lui	t2,0xff0
8000250c:	0ff38393          	addi	t2,t2,255 # ff00ff <_start-0x7f00ff01>
80002510:	00770463          	beq	a4,t2,80002518 <test_1207>
80002514:	af5fd06f          	j	80000008 <fail>

80002518 <test_1207>:
80002518:	4b700193          	li	gp,1207
8000251c:	ff0107b7          	lui	a5,0xff010
80002520:	f0078793          	addi	a5,a5,-256 # ff00ff00 <__global_pointer$+0x7f00acb8>
80002524:	00003097          	auipc	ra,0x3
80002528:	b1808093          	addi	ra,ra,-1256 # 8000503c <__BSS_END__+0x54c>
8000252c:	ff80a703          	lw	a4,-8(ra)
80002530:	ff0103b7          	lui	t2,0xff010
80002534:	f0038393          	addi	t2,t2,-256 # ff00ff00 <__global_pointer$+0x7f00acb8>
80002538:	00770463          	beq	a4,t2,80002540 <test_1208>
8000253c:	acdfd06f          	j	80000008 <fail>

80002540 <test_1208>:
80002540:	4b800193          	li	gp,1208
80002544:	0ff017b7          	lui	a5,0xff01
80002548:	ff078793          	addi	a5,a5,-16 # ff00ff0 <_start-0x700ff010>
8000254c:	00003097          	auipc	ra,0x3
80002550:	af008093          	addi	ra,ra,-1296 # 8000503c <__BSS_END__+0x54c>
80002554:	ffc0a703          	lw	a4,-4(ra)
80002558:	0ff013b7          	lui	t2,0xff01
8000255c:	ff038393          	addi	t2,t2,-16 # ff00ff0 <_start-0x700ff010>
80002560:	00770463          	beq	a4,t2,80002568 <test_1209>
80002564:	aa5fd06f          	j	80000008 <fail>

80002568 <test_1209>:
80002568:	4b900193          	li	gp,1209
8000256c:	f00ff7b7          	lui	a5,0xf00ff
80002570:	00f78793          	addi	a5,a5,15 # f00ff00f <__global_pointer$+0x700f9dc7>
80002574:	00003097          	auipc	ra,0x3
80002578:	ac808093          	addi	ra,ra,-1336 # 8000503c <__BSS_END__+0x54c>
8000257c:	0000a703          	lw	a4,0(ra)
80002580:	f00ff3b7          	lui	t2,0xf00ff
80002584:	00f38393          	addi	t2,t2,15 # f00ff00f <__global_pointer$+0x700f9dc7>
80002588:	00770463          	beq	a4,t2,80002590 <test_1210>
8000258c:	a7dfd06f          	j	80000008 <fail>

80002590 <test_1210>:
80002590:	4ba00193          	li	gp,1210
80002594:	00003097          	auipc	ra,0x3
80002598:	a9c08093          	addi	ra,ra,-1380 # 80005030 <__BSS_END__+0x540>
8000259c:	fe008093          	addi	ra,ra,-32
800025a0:	0200a283          	lw	t0,32(ra)
800025a4:	00ff03b7          	lui	t2,0xff0
800025a8:	0ff38393          	addi	t2,t2,255 # ff00ff <_start-0x7f00ff01>
800025ac:	00728463          	beq	t0,t2,800025b4 <test_1211>
800025b0:	a59fd06f          	j	80000008 <fail>

800025b4 <test_1211>:
800025b4:	4bb00193          	li	gp,1211
800025b8:	00003097          	auipc	ra,0x3
800025bc:	a7808093          	addi	ra,ra,-1416 # 80005030 <__BSS_END__+0x540>
800025c0:	ffd08093          	addi	ra,ra,-3
800025c4:	0070a283          	lw	t0,7(ra)
800025c8:	ff0103b7          	lui	t2,0xff010
800025cc:	f0038393          	addi	t2,t2,-256 # ff00ff00 <__global_pointer$+0x7f00acb8>
800025d0:	00728463          	beq	t0,t2,800025d8 <test_1212>
800025d4:	a35fd06f          	j	80000008 <fail>

800025d8 <test_1212>:
800025d8:	4bc00193          	li	gp,1212
800025dc:	00000213          	li	tp,0
800025e0:	00003097          	auipc	ra,0x3
800025e4:	a5408093          	addi	ra,ra,-1452 # 80005034 <__BSS_END__+0x544>
800025e8:	0040a703          	lw	a4,4(ra)
800025ec:	00070313          	mv	t1,a4
800025f0:	0ff013b7          	lui	t2,0xff01
800025f4:	ff038393          	addi	t2,t2,-16 # ff00ff0 <_start-0x700ff010>
800025f8:	00730463          	beq	t1,t2,80002600 <test_1212+0x28>
800025fc:	a0dfd06f          	j	80000008 <fail>
80002600:	00120213          	addi	tp,tp,1 # 1 <_start-0x7fffffff>
80002604:	00200293          	li	t0,2
80002608:	fc521ce3          	bne	tp,t0,800025e0 <test_1212+0x8>

8000260c <test_1213>:
8000260c:	4bd00193          	li	gp,1213
80002610:	00000213          	li	tp,0
80002614:	00003097          	auipc	ra,0x3
80002618:	a2408093          	addi	ra,ra,-1500 # 80005038 <__BSS_END__+0x548>
8000261c:	0040a703          	lw	a4,4(ra)
80002620:	00000013          	nop
80002624:	00070313          	mv	t1,a4
80002628:	f00ff3b7          	lui	t2,0xf00ff
8000262c:	00f38393          	addi	t2,t2,15 # f00ff00f <__global_pointer$+0x700f9dc7>
80002630:	00730463          	beq	t1,t2,80002638 <test_1213+0x2c>
80002634:	9d5fd06f          	j	80000008 <fail>
80002638:	00120213          	addi	tp,tp,1 # 1 <_start-0x7fffffff>
8000263c:	00200293          	li	t0,2
80002640:	fc521ae3          	bne	tp,t0,80002614 <test_1213+0x8>

80002644 <test_1214>:
80002644:	4be00193          	li	gp,1214
80002648:	00000213          	li	tp,0
8000264c:	00003097          	auipc	ra,0x3
80002650:	9e408093          	addi	ra,ra,-1564 # 80005030 <__BSS_END__+0x540>
80002654:	0040a703          	lw	a4,4(ra)
80002658:	00000013          	nop
8000265c:	00000013          	nop
80002660:	00070313          	mv	t1,a4
80002664:	ff0103b7          	lui	t2,0xff010
80002668:	f0038393          	addi	t2,t2,-256 # ff00ff00 <__global_pointer$+0x7f00acb8>
8000266c:	00730463          	beq	t1,t2,80002674 <test_1214+0x30>
80002670:	999fd06f          	j	80000008 <fail>
80002674:	00120213          	addi	tp,tp,1 # 1 <_start-0x7fffffff>
80002678:	00200293          	li	t0,2
8000267c:	fc5218e3          	bne	tp,t0,8000264c <test_1214+0x8>

80002680 <test_1215>:
80002680:	4bf00193          	li	gp,1215
80002684:	00000213          	li	tp,0
80002688:	00003097          	auipc	ra,0x3
8000268c:	9ac08093          	addi	ra,ra,-1620 # 80005034 <__BSS_END__+0x544>
80002690:	0040a703          	lw	a4,4(ra)
80002694:	0ff013b7          	lui	t2,0xff01
80002698:	ff038393          	addi	t2,t2,-16 # ff00ff0 <_start-0x700ff010>
8000269c:	00770463          	beq	a4,t2,800026a4 <test_1215+0x24>
800026a0:	969fd06f          	j	80000008 <fail>
800026a4:	00120213          	addi	tp,tp,1 # 1 <_start-0x7fffffff>
800026a8:	00200293          	li	t0,2
800026ac:	fc521ee3          	bne	tp,t0,80002688 <test_1215+0x8>

800026b0 <test_1216>:
800026b0:	4c000193          	li	gp,1216
800026b4:	00000213          	li	tp,0
800026b8:	00003097          	auipc	ra,0x3
800026bc:	98008093          	addi	ra,ra,-1664 # 80005038 <__BSS_END__+0x548>
800026c0:	00000013          	nop
800026c4:	0040a703          	lw	a4,4(ra)
800026c8:	f00ff3b7          	lui	t2,0xf00ff
800026cc:	00f38393          	addi	t2,t2,15 # f00ff00f <__global_pointer$+0x700f9dc7>
800026d0:	00770463          	beq	a4,t2,800026d8 <test_1216+0x28>
800026d4:	935fd06f          	j	80000008 <fail>
800026d8:	00120213          	addi	tp,tp,1 # 1 <_start-0x7fffffff>
800026dc:	00200293          	li	t0,2
800026e0:	fc521ce3          	bne	tp,t0,800026b8 <test_1216+0x8>

800026e4 <test_1217>:
800026e4:	4c100193          	li	gp,1217
800026e8:	00000213          	li	tp,0
800026ec:	00003097          	auipc	ra,0x3
800026f0:	94408093          	addi	ra,ra,-1724 # 80005030 <__BSS_END__+0x540>
800026f4:	00000013          	nop
800026f8:	00000013          	nop
800026fc:	0040a703          	lw	a4,4(ra)
80002700:	ff0103b7          	lui	t2,0xff010
80002704:	f0038393          	addi	t2,t2,-256 # ff00ff00 <__global_pointer$+0x7f00acb8>
80002708:	00770463          	beq	a4,t2,80002710 <test_1217+0x2c>
8000270c:	8fdfd06f          	j	80000008 <fail>
80002710:	00120213          	addi	tp,tp,1 # 1 <_start-0x7fffffff>
80002714:	00200293          	li	t0,2
80002718:	fc521ae3          	bne	tp,t0,800026ec <test_1217+0x8>

8000271c <test_1218>:
8000271c:	4c200193          	li	gp,1218
80002720:	00003297          	auipc	t0,0x3
80002724:	91028293          	addi	t0,t0,-1776 # 80005030 <__BSS_END__+0x540>
80002728:	0002a103          	lw	sp,0(t0)
8000272c:	00200113          	li	sp,2
80002730:	00200393          	li	t2,2
80002734:	00710463          	beq	sp,t2,8000273c <test_1219>
80002738:	8d1fd06f          	j	80000008 <fail>

8000273c <test_1219>:
8000273c:	4c300193          	li	gp,1219
80002740:	00003297          	auipc	t0,0x3
80002744:	8f028293          	addi	t0,t0,-1808 # 80005030 <__BSS_END__+0x540>
80002748:	0002a103          	lw	sp,0(t0)
8000274c:	00000013          	nop
80002750:	00200113          	li	sp,2
80002754:	00200393          	li	t2,2
80002758:	00710463          	beq	sp,t2,80002760 <test_1302>
8000275c:	8adfd06f          	j	80000008 <fail>

80002760 <test_1302>:
80002760:	51600193          	li	gp,1302
80002764:	ff0100b7          	lui	ra,0xff010
80002768:	f0008093          	addi	ra,ra,-256 # ff00ff00 <__global_pointer$+0x7f00acb8>
8000276c:	0f0f1137          	lui	sp,0xf0f1
80002770:	f0f10113          	addi	sp,sp,-241 # f0f0f0f <_start-0x70f0f0f1>
80002774:	0020e733          	or	a4,ra,sp
80002778:	ff1003b7          	lui	t2,0xff100
8000277c:	f0f38393          	addi	t2,t2,-241 # ff0fff0f <__global_pointer$+0x7f0facc7>
80002780:	00770463          	beq	a4,t2,80002788 <test_1303>
80002784:	885fd06f          	j	80000008 <fail>

80002788 <test_1303>:
80002788:	51700193          	li	gp,1303
8000278c:	0ff010b7          	lui	ra,0xff01
80002790:	ff008093          	addi	ra,ra,-16 # ff00ff0 <_start-0x700ff010>
80002794:	f0f0f137          	lui	sp,0xf0f0f
80002798:	0f010113          	addi	sp,sp,240 # f0f0f0f0 <__global_pointer$+0x70f09ea8>
8000279c:	0020e733          	or	a4,ra,sp
800027a0:	fff103b7          	lui	t2,0xfff10
800027a4:	ff038393          	addi	t2,t2,-16 # fff0fff0 <__global_pointer$+0x7ff0ada8>
800027a8:	00770463          	beq	a4,t2,800027b0 <test_1304>
800027ac:	85dfd06f          	j	80000008 <fail>

800027b0 <test_1304>:
800027b0:	51800193          	li	gp,1304
800027b4:	00ff00b7          	lui	ra,0xff0
800027b8:	0ff08093          	addi	ra,ra,255 # ff00ff <_start-0x7f00ff01>
800027bc:	0f0f1137          	lui	sp,0xf0f1
800027c0:	f0f10113          	addi	sp,sp,-241 # f0f0f0f <_start-0x70f0f0f1>
800027c4:	0020e733          	or	a4,ra,sp
800027c8:	0fff13b7          	lui	t2,0xfff1
800027cc:	fff38393          	addi	t2,t2,-1 # fff0fff <_start-0x7000f001>
800027d0:	00770463          	beq	a4,t2,800027d8 <test_1305>
800027d4:	835fd06f          	j	80000008 <fail>

800027d8 <test_1305>:
800027d8:	51900193          	li	gp,1305
800027dc:	f00ff0b7          	lui	ra,0xf00ff
800027e0:	00f08093          	addi	ra,ra,15 # f00ff00f <__global_pointer$+0x700f9dc7>
800027e4:	f0f0f137          	lui	sp,0xf0f0f
800027e8:	0f010113          	addi	sp,sp,240 # f0f0f0f0 <__global_pointer$+0x70f09ea8>
800027ec:	0020e733          	or	a4,ra,sp
800027f0:	f0fff3b7          	lui	t2,0xf0fff
800027f4:	0ff38393          	addi	t2,t2,255 # f0fff0ff <__global_pointer$+0x70ff9eb7>
800027f8:	00770463          	beq	a4,t2,80002800 <test_1306>
800027fc:	80dfd06f          	j	80000008 <fail>

80002800 <test_1306>:
80002800:	51a00193          	li	gp,1306
80002804:	ff0100b7          	lui	ra,0xff010
80002808:	f0008093          	addi	ra,ra,-256 # ff00ff00 <__global_pointer$+0x7f00acb8>
8000280c:	0f0f1137          	lui	sp,0xf0f1
80002810:	f0f10113          	addi	sp,sp,-241 # f0f0f0f <_start-0x70f0f0f1>
80002814:	0020e0b3          	or	ra,ra,sp
80002818:	ff1003b7          	lui	t2,0xff100
8000281c:	f0f38393          	addi	t2,t2,-241 # ff0fff0f <__global_pointer$+0x7f0facc7>
80002820:	00708463          	beq	ra,t2,80002828 <test_1307>
80002824:	fe4fd06f          	j	80000008 <fail>

80002828 <test_1307>:
80002828:	51b00193          	li	gp,1307
8000282c:	ff0100b7          	lui	ra,0xff010
80002830:	f0008093          	addi	ra,ra,-256 # ff00ff00 <__global_pointer$+0x7f00acb8>
80002834:	0f0f1137          	lui	sp,0xf0f1
80002838:	f0f10113          	addi	sp,sp,-241 # f0f0f0f <_start-0x70f0f0f1>
8000283c:	0020e133          	or	sp,ra,sp
80002840:	ff1003b7          	lui	t2,0xff100
80002844:	f0f38393          	addi	t2,t2,-241 # ff0fff0f <__global_pointer$+0x7f0facc7>
80002848:	00710463          	beq	sp,t2,80002850 <test_1308>
8000284c:	fbcfd06f          	j	80000008 <fail>

80002850 <test_1308>:
80002850:	51c00193          	li	gp,1308
80002854:	ff0100b7          	lui	ra,0xff010
80002858:	f0008093          	addi	ra,ra,-256 # ff00ff00 <__global_pointer$+0x7f00acb8>
8000285c:	0010e0b3          	or	ra,ra,ra
80002860:	ff0103b7          	lui	t2,0xff010
80002864:	f0038393          	addi	t2,t2,-256 # ff00ff00 <__global_pointer$+0x7f00acb8>
80002868:	00708463          	beq	ra,t2,80002870 <test_1309>
8000286c:	f9cfd06f          	j	80000008 <fail>

80002870 <test_1309>:
80002870:	51d00193          	li	gp,1309
80002874:	00000213          	li	tp,0
80002878:	ff0100b7          	lui	ra,0xff010
8000287c:	f0008093          	addi	ra,ra,-256 # ff00ff00 <__global_pointer$+0x7f00acb8>
80002880:	0f0f1137          	lui	sp,0xf0f1
80002884:	f0f10113          	addi	sp,sp,-241 # f0f0f0f <_start-0x70f0f0f1>
80002888:	0020e733          	or	a4,ra,sp
8000288c:	00070313          	mv	t1,a4
80002890:	00120213          	addi	tp,tp,1 # 1 <_start-0x7fffffff>
80002894:	00200293          	li	t0,2
80002898:	fe5210e3          	bne	tp,t0,80002878 <test_1309+0x8>
8000289c:	ff1003b7          	lui	t2,0xff100
800028a0:	f0f38393          	addi	t2,t2,-241 # ff0fff0f <__global_pointer$+0x7f0facc7>
800028a4:	00730463          	beq	t1,t2,800028ac <test_1310>
800028a8:	f60fd06f          	j	80000008 <fail>

800028ac <test_1310>:
800028ac:	51e00193          	li	gp,1310
800028b0:	00000213          	li	tp,0
800028b4:	0ff010b7          	lui	ra,0xff01
800028b8:	ff008093          	addi	ra,ra,-16 # ff00ff0 <_start-0x700ff010>
800028bc:	f0f0f137          	lui	sp,0xf0f0f
800028c0:	0f010113          	addi	sp,sp,240 # f0f0f0f0 <__global_pointer$+0x70f09ea8>
800028c4:	0020e733          	or	a4,ra,sp
800028c8:	00000013          	nop
800028cc:	00070313          	mv	t1,a4
800028d0:	00120213          	addi	tp,tp,1 # 1 <_start-0x7fffffff>
800028d4:	00200293          	li	t0,2
800028d8:	fc521ee3          	bne	tp,t0,800028b4 <test_1310+0x8>
800028dc:	fff103b7          	lui	t2,0xfff10
800028e0:	ff038393          	addi	t2,t2,-16 # fff0fff0 <__global_pointer$+0x7ff0ada8>
800028e4:	00730463          	beq	t1,t2,800028ec <test_1311>
800028e8:	f20fd06f          	j	80000008 <fail>

800028ec <test_1311>:
800028ec:	51f00193          	li	gp,1311
800028f0:	00000213          	li	tp,0
800028f4:	00ff00b7          	lui	ra,0xff0
800028f8:	0ff08093          	addi	ra,ra,255 # ff00ff <_start-0x7f00ff01>
800028fc:	0f0f1137          	lui	sp,0xf0f1
80002900:	f0f10113          	addi	sp,sp,-241 # f0f0f0f <_start-0x70f0f0f1>
80002904:	0020e733          	or	a4,ra,sp
80002908:	00000013          	nop
8000290c:	00000013          	nop
80002910:	00070313          	mv	t1,a4
80002914:	00120213          	addi	tp,tp,1 # 1 <_start-0x7fffffff>
80002918:	00200293          	li	t0,2
8000291c:	fc521ce3          	bne	tp,t0,800028f4 <test_1311+0x8>
80002920:	0fff13b7          	lui	t2,0xfff1
80002924:	fff38393          	addi	t2,t2,-1 # fff0fff <_start-0x7000f001>
80002928:	00730463          	beq	t1,t2,80002930 <test_1312>
8000292c:	edcfd06f          	j	80000008 <fail>

80002930 <test_1312>:
80002930:	52000193          	li	gp,1312
80002934:	00000213          	li	tp,0
80002938:	ff0100b7          	lui	ra,0xff010
8000293c:	f0008093          	addi	ra,ra,-256 # ff00ff00 <__global_pointer$+0x7f00acb8>
80002940:	0f0f1137          	lui	sp,0xf0f1
80002944:	f0f10113          	addi	sp,sp,-241 # f0f0f0f <_start-0x70f0f0f1>
80002948:	0020e733          	or	a4,ra,sp
8000294c:	00120213          	addi	tp,tp,1 # 1 <_start-0x7fffffff>
80002950:	00200293          	li	t0,2
80002954:	fe5212e3          	bne	tp,t0,80002938 <test_1312+0x8>
80002958:	ff1003b7          	lui	t2,0xff100
8000295c:	f0f38393          	addi	t2,t2,-241 # ff0fff0f <__global_pointer$+0x7f0facc7>
80002960:	00770463          	beq	a4,t2,80002968 <test_1313>
80002964:	ea4fd06f          	j	80000008 <fail>

80002968 <test_1313>:
80002968:	52100193          	li	gp,1313
8000296c:	00000213          	li	tp,0
80002970:	0ff010b7          	lui	ra,0xff01
80002974:	ff008093          	addi	ra,ra,-16 # ff00ff0 <_start-0x700ff010>
80002978:	f0f0f137          	lui	sp,0xf0f0f
8000297c:	0f010113          	addi	sp,sp,240 # f0f0f0f0 <__global_pointer$+0x70f09ea8>
80002980:	00000013          	nop
80002984:	0020e733          	or	a4,ra,sp
80002988:	00120213          	addi	tp,tp,1 # 1 <_start-0x7fffffff>
8000298c:	00200293          	li	t0,2
80002990:	fe5210e3          	bne	tp,t0,80002970 <test_1313+0x8>
80002994:	fff103b7          	lui	t2,0xfff10
80002998:	ff038393          	addi	t2,t2,-16 # fff0fff0 <__global_pointer$+0x7ff0ada8>
8000299c:	00770463          	beq	a4,t2,800029a4 <test_1314>
800029a0:	e68fd06f          	j	80000008 <fail>

800029a4 <test_1314>:
800029a4:	52200193          	li	gp,1314
800029a8:	00000213          	li	tp,0
800029ac:	00ff00b7          	lui	ra,0xff0
800029b0:	0ff08093          	addi	ra,ra,255 # ff00ff <_start-0x7f00ff01>
800029b4:	0f0f1137          	lui	sp,0xf0f1
800029b8:	f0f10113          	addi	sp,sp,-241 # f0f0f0f <_start-0x70f0f0f1>
800029bc:	00000013          	nop
800029c0:	00000013          	nop
800029c4:	0020e733          	or	a4,ra,sp
800029c8:	00120213          	addi	tp,tp,1 # 1 <_start-0x7fffffff>
800029cc:	00200293          	li	t0,2
800029d0:	fc521ee3          	bne	tp,t0,800029ac <test_1314+0x8>
800029d4:	0fff13b7          	lui	t2,0xfff1
800029d8:	fff38393          	addi	t2,t2,-1 # fff0fff <_start-0x7000f001>
800029dc:	00770463          	beq	a4,t2,800029e4 <test_1315>
800029e0:	e28fd06f          	j	80000008 <fail>

800029e4 <test_1315>:
800029e4:	52300193          	li	gp,1315
800029e8:	00000213          	li	tp,0
800029ec:	ff0100b7          	lui	ra,0xff010
800029f0:	f0008093          	addi	ra,ra,-256 # ff00ff00 <__global_pointer$+0x7f00acb8>
800029f4:	00000013          	nop
800029f8:	0f0f1137          	lui	sp,0xf0f1
800029fc:	f0f10113          	addi	sp,sp,-241 # f0f0f0f <_start-0x70f0f0f1>
80002a00:	0020e733          	or	a4,ra,sp
80002a04:	00120213          	addi	tp,tp,1 # 1 <_start-0x7fffffff>
80002a08:	00200293          	li	t0,2
80002a0c:	fe5210e3          	bne	tp,t0,800029ec <test_1315+0x8>
80002a10:	ff1003b7          	lui	t2,0xff100
80002a14:	f0f38393          	addi	t2,t2,-241 # ff0fff0f <__global_pointer$+0x7f0facc7>
80002a18:	00770463          	beq	a4,t2,80002a20 <test_1316>
80002a1c:	decfd06f          	j	80000008 <fail>

80002a20 <test_1316>:
80002a20:	52400193          	li	gp,1316
80002a24:	00000213          	li	tp,0
80002a28:	0ff010b7          	lui	ra,0xff01
80002a2c:	ff008093          	addi	ra,ra,-16 # ff00ff0 <_start-0x700ff010>
80002a30:	00000013          	nop
80002a34:	f0f0f137          	lui	sp,0xf0f0f
80002a38:	0f010113          	addi	sp,sp,240 # f0f0f0f0 <__global_pointer$+0x70f09ea8>
80002a3c:	00000013          	nop
80002a40:	0020e733          	or	a4,ra,sp
80002a44:	00120213          	addi	tp,tp,1 # 1 <_start-0x7fffffff>
80002a48:	00200293          	li	t0,2
80002a4c:	fc521ee3          	bne	tp,t0,80002a28 <test_1316+0x8>
80002a50:	fff103b7          	lui	t2,0xfff10
80002a54:	ff038393          	addi	t2,t2,-16 # fff0fff0 <__global_pointer$+0x7ff0ada8>
80002a58:	00770463          	beq	a4,t2,80002a60 <test_1317>
80002a5c:	dacfd06f          	j	80000008 <fail>

80002a60 <test_1317>:
80002a60:	52500193          	li	gp,1317
80002a64:	00000213          	li	tp,0
80002a68:	00ff00b7          	lui	ra,0xff0
80002a6c:	0ff08093          	addi	ra,ra,255 # ff00ff <_start-0x7f00ff01>
80002a70:	00000013          	nop
80002a74:	00000013          	nop
80002a78:	0f0f1137          	lui	sp,0xf0f1
80002a7c:	f0f10113          	addi	sp,sp,-241 # f0f0f0f <_start-0x70f0f0f1>
80002a80:	0020e733          	or	a4,ra,sp
80002a84:	00120213          	addi	tp,tp,1 # 1 <_start-0x7fffffff>
80002a88:	00200293          	li	t0,2
80002a8c:	fc521ee3          	bne	tp,t0,80002a68 <test_1317+0x8>
80002a90:	0fff13b7          	lui	t2,0xfff1
80002a94:	fff38393          	addi	t2,t2,-1 # fff0fff <_start-0x7000f001>
80002a98:	00770463          	beq	a4,t2,80002aa0 <test_1318>
80002a9c:	d6cfd06f          	j	80000008 <fail>

80002aa0 <test_1318>:
80002aa0:	52600193          	li	gp,1318
80002aa4:	00000213          	li	tp,0
80002aa8:	0f0f1137          	lui	sp,0xf0f1
80002aac:	f0f10113          	addi	sp,sp,-241 # f0f0f0f <_start-0x70f0f0f1>
80002ab0:	ff0100b7          	lui	ra,0xff010
80002ab4:	f0008093          	addi	ra,ra,-256 # ff00ff00 <__global_pointer$+0x7f00acb8>
80002ab8:	0020e733          	or	a4,ra,sp
80002abc:	00120213          	addi	tp,tp,1 # 1 <_start-0x7fffffff>
80002ac0:	00200293          	li	t0,2
80002ac4:	fe5212e3          	bne	tp,t0,80002aa8 <test_1318+0x8>
80002ac8:	ff1003b7          	lui	t2,0xff100
80002acc:	f0f38393          	addi	t2,t2,-241 # ff0fff0f <__global_pointer$+0x7f0facc7>
80002ad0:	00770463          	beq	a4,t2,80002ad8 <test_1319>
80002ad4:	d34fd06f          	j	80000008 <fail>

80002ad8 <test_1319>:
80002ad8:	52700193          	li	gp,1319
80002adc:	00000213          	li	tp,0
80002ae0:	f0f0f137          	lui	sp,0xf0f0f
80002ae4:	0f010113          	addi	sp,sp,240 # f0f0f0f0 <__global_pointer$+0x70f09ea8>
80002ae8:	0ff010b7          	lui	ra,0xff01
80002aec:	ff008093          	addi	ra,ra,-16 # ff00ff0 <_start-0x700ff010>
80002af0:	00000013          	nop
80002af4:	0020e733          	or	a4,ra,sp
80002af8:	00120213          	addi	tp,tp,1 # 1 <_start-0x7fffffff>
80002afc:	00200293          	li	t0,2
80002b00:	fe5210e3          	bne	tp,t0,80002ae0 <test_1319+0x8>
80002b04:	fff103b7          	lui	t2,0xfff10
80002b08:	ff038393          	addi	t2,t2,-16 # fff0fff0 <__global_pointer$+0x7ff0ada8>
80002b0c:	00770463          	beq	a4,t2,80002b14 <test_1320>
80002b10:	cf8fd06f          	j	80000008 <fail>

80002b14 <test_1320>:
80002b14:	52800193          	li	gp,1320
80002b18:	00000213          	li	tp,0
80002b1c:	0f0f1137          	lui	sp,0xf0f1
80002b20:	f0f10113          	addi	sp,sp,-241 # f0f0f0f <_start-0x70f0f0f1>
80002b24:	00ff00b7          	lui	ra,0xff0
80002b28:	0ff08093          	addi	ra,ra,255 # ff00ff <_start-0x7f00ff01>
80002b2c:	00000013          	nop
80002b30:	00000013          	nop
80002b34:	0020e733          	or	a4,ra,sp
80002b38:	00120213          	addi	tp,tp,1 # 1 <_start-0x7fffffff>
80002b3c:	00200293          	li	t0,2
80002b40:	fc521ee3          	bne	tp,t0,80002b1c <test_1320+0x8>
80002b44:	0fff13b7          	lui	t2,0xfff1
80002b48:	fff38393          	addi	t2,t2,-1 # fff0fff <_start-0x7000f001>
80002b4c:	00770463          	beq	a4,t2,80002b54 <test_1321>
80002b50:	cb8fd06f          	j	80000008 <fail>

80002b54 <test_1321>:
80002b54:	52900193          	li	gp,1321
80002b58:	00000213          	li	tp,0
80002b5c:	0f0f1137          	lui	sp,0xf0f1
80002b60:	f0f10113          	addi	sp,sp,-241 # f0f0f0f <_start-0x70f0f0f1>
80002b64:	00000013          	nop
80002b68:	ff0100b7          	lui	ra,0xff010
80002b6c:	f0008093          	addi	ra,ra,-256 # ff00ff00 <__global_pointer$+0x7f00acb8>
80002b70:	0020e733          	or	a4,ra,sp
80002b74:	00120213          	addi	tp,tp,1 # 1 <_start-0x7fffffff>
80002b78:	00200293          	li	t0,2
80002b7c:	fe5210e3          	bne	tp,t0,80002b5c <test_1321+0x8>
80002b80:	ff1003b7          	lui	t2,0xff100
80002b84:	f0f38393          	addi	t2,t2,-241 # ff0fff0f <__global_pointer$+0x7f0facc7>
80002b88:	00770463          	beq	a4,t2,80002b90 <test_1322>
80002b8c:	c7cfd06f          	j	80000008 <fail>

80002b90 <test_1322>:
80002b90:	52a00193          	li	gp,1322
80002b94:	00000213          	li	tp,0
80002b98:	f0f0f137          	lui	sp,0xf0f0f
80002b9c:	0f010113          	addi	sp,sp,240 # f0f0f0f0 <__global_pointer$+0x70f09ea8>
80002ba0:	00000013          	nop
80002ba4:	0ff010b7          	lui	ra,0xff01
80002ba8:	ff008093          	addi	ra,ra,-16 # ff00ff0 <_start-0x700ff010>
80002bac:	00000013          	nop
80002bb0:	0020e733          	or	a4,ra,sp
80002bb4:	00120213          	addi	tp,tp,1 # 1 <_start-0x7fffffff>
80002bb8:	00200293          	li	t0,2
80002bbc:	fc521ee3          	bne	tp,t0,80002b98 <test_1322+0x8>
80002bc0:	fff103b7          	lui	t2,0xfff10
80002bc4:	ff038393          	addi	t2,t2,-16 # fff0fff0 <__global_pointer$+0x7ff0ada8>
80002bc8:	00770463          	beq	a4,t2,80002bd0 <test_1323>
80002bcc:	c3cfd06f          	j	80000008 <fail>

80002bd0 <test_1323>:
80002bd0:	52b00193          	li	gp,1323
80002bd4:	00000213          	li	tp,0
80002bd8:	0f0f1137          	lui	sp,0xf0f1
80002bdc:	f0f10113          	addi	sp,sp,-241 # f0f0f0f <_start-0x70f0f0f1>
80002be0:	00000013          	nop
80002be4:	00000013          	nop
80002be8:	00ff00b7          	lui	ra,0xff0
80002bec:	0ff08093          	addi	ra,ra,255 # ff00ff <_start-0x7f00ff01>
80002bf0:	0020e733          	or	a4,ra,sp
80002bf4:	00120213          	addi	tp,tp,1 # 1 <_start-0x7fffffff>
80002bf8:	00200293          	li	t0,2
80002bfc:	fc521ee3          	bne	tp,t0,80002bd8 <test_1323+0x8>
80002c00:	0fff13b7          	lui	t2,0xfff1
80002c04:	fff38393          	addi	t2,t2,-1 # fff0fff <_start-0x7000f001>
80002c08:	00770463          	beq	a4,t2,80002c10 <test_1324>
80002c0c:	bfcfd06f          	j	80000008 <fail>

80002c10 <test_1324>:
80002c10:	52c00193          	li	gp,1324
80002c14:	ff0100b7          	lui	ra,0xff010
80002c18:	f0008093          	addi	ra,ra,-256 # ff00ff00 <__global_pointer$+0x7f00acb8>
80002c1c:	00106133          	or	sp,zero,ra
80002c20:	ff0103b7          	lui	t2,0xff010
80002c24:	f0038393          	addi	t2,t2,-256 # ff00ff00 <__global_pointer$+0x7f00acb8>
80002c28:	00710463          	beq	sp,t2,80002c30 <test_1325>
80002c2c:	bdcfd06f          	j	80000008 <fail>

80002c30 <test_1325>:
80002c30:	52d00193          	li	gp,1325
80002c34:	00ff00b7          	lui	ra,0xff0
80002c38:	0ff08093          	addi	ra,ra,255 # ff00ff <_start-0x7f00ff01>
80002c3c:	0000e133          	or	sp,ra,zero
80002c40:	00ff03b7          	lui	t2,0xff0
80002c44:	0ff38393          	addi	t2,t2,255 # ff00ff <_start-0x7f00ff01>
80002c48:	00710463          	beq	sp,t2,80002c50 <test_1326>
80002c4c:	bbcfd06f          	j	80000008 <fail>

80002c50 <test_1326>:
80002c50:	52e00193          	li	gp,1326
80002c54:	000060b3          	or	ra,zero,zero
80002c58:	00000393          	li	t2,0
80002c5c:	00708463          	beq	ra,t2,80002c64 <test_1327>
80002c60:	ba8fd06f          	j	80000008 <fail>

80002c64 <test_1327>:
80002c64:	52f00193          	li	gp,1327
80002c68:	111110b7          	lui	ra,0x11111
80002c6c:	11108093          	addi	ra,ra,273 # 11111111 <_start-0x6eeeeeef>
80002c70:	22222137          	lui	sp,0x22222
80002c74:	22210113          	addi	sp,sp,546 # 22222222 <_start-0x5dddddde>
80002c78:	0020e033          	or	zero,ra,sp
80002c7c:	00000393          	li	t2,0
80002c80:	00700463          	beq	zero,t2,80002c88 <test_1402>
80002c84:	b84fd06f          	j	80000008 <fail>

80002c88 <test_1402>:
80002c88:	57a00193          	li	gp,1402
80002c8c:	ff0100b7          	lui	ra,0xff010
80002c90:	f0008093          	addi	ra,ra,-256 # ff00ff00 <__global_pointer$+0x7f00acb8>
80002c94:	f0f0e713          	ori	a4,ra,-241
80002c98:	f0f00393          	li	t2,-241
80002c9c:	00770463          	beq	a4,t2,80002ca4 <test_1403>
80002ca0:	b68fd06f          	j	80000008 <fail>

80002ca4 <test_1403>:
80002ca4:	57b00193          	li	gp,1403
80002ca8:	0ff010b7          	lui	ra,0xff01
80002cac:	ff008093          	addi	ra,ra,-16 # ff00ff0 <_start-0x700ff010>
80002cb0:	0f00e713          	ori	a4,ra,240
80002cb4:	0ff013b7          	lui	t2,0xff01
80002cb8:	ff038393          	addi	t2,t2,-16 # ff00ff0 <_start-0x700ff010>
80002cbc:	00770463          	beq	a4,t2,80002cc4 <test_1404>
80002cc0:	b48fd06f          	j	80000008 <fail>

80002cc4 <test_1404>:
80002cc4:	57c00193          	li	gp,1404
80002cc8:	00ff00b7          	lui	ra,0xff0
80002ccc:	0ff08093          	addi	ra,ra,255 # ff00ff <_start-0x7f00ff01>
80002cd0:	70f0e713          	ori	a4,ra,1807
80002cd4:	00ff03b7          	lui	t2,0xff0
80002cd8:	7ff38393          	addi	t2,t2,2047 # ff07ff <_start-0x7f00f801>
80002cdc:	00770463          	beq	a4,t2,80002ce4 <test_1405>
80002ce0:	b28fd06f          	j	80000008 <fail>

80002ce4 <test_1405>:
80002ce4:	57d00193          	li	gp,1405
80002ce8:	f00ff0b7          	lui	ra,0xf00ff
80002cec:	00f08093          	addi	ra,ra,15 # f00ff00f <__global_pointer$+0x700f9dc7>
80002cf0:	0f00e713          	ori	a4,ra,240
80002cf4:	f00ff3b7          	lui	t2,0xf00ff
80002cf8:	0ff38393          	addi	t2,t2,255 # f00ff0ff <__global_pointer$+0x700f9eb7>
80002cfc:	00770463          	beq	a4,t2,80002d04 <test_1406>
80002d00:	b08fd06f          	j	80000008 <fail>

80002d04 <test_1406>:
80002d04:	57e00193          	li	gp,1406
80002d08:	ff0100b7          	lui	ra,0xff010
80002d0c:	f0008093          	addi	ra,ra,-256 # ff00ff00 <__global_pointer$+0x7f00acb8>
80002d10:	0f00e093          	ori	ra,ra,240
80002d14:	ff0103b7          	lui	t2,0xff010
80002d18:	ff038393          	addi	t2,t2,-16 # ff00fff0 <__global_pointer$+0x7f00ada8>
80002d1c:	00708463          	beq	ra,t2,80002d24 <test_1407>
80002d20:	ae8fd06f          	j	80000008 <fail>

80002d24 <test_1407>:
80002d24:	57f00193          	li	gp,1407
80002d28:	00000213          	li	tp,0
80002d2c:	0ff010b7          	lui	ra,0xff01
80002d30:	ff008093          	addi	ra,ra,-16 # ff00ff0 <_start-0x700ff010>
80002d34:	0f00e713          	ori	a4,ra,240
80002d38:	00070313          	mv	t1,a4
80002d3c:	00120213          	addi	tp,tp,1 # 1 <_start-0x7fffffff>
80002d40:	00200293          	li	t0,2
80002d44:	fe5214e3          	bne	tp,t0,80002d2c <test_1407+0x8>
80002d48:	0ff013b7          	lui	t2,0xff01
80002d4c:	ff038393          	addi	t2,t2,-16 # ff00ff0 <_start-0x700ff010>
80002d50:	00730463          	beq	t1,t2,80002d58 <test_1408>
80002d54:	ab4fd06f          	j	80000008 <fail>

80002d58 <test_1408>:
80002d58:	58000193          	li	gp,1408
80002d5c:	00000213          	li	tp,0
80002d60:	00ff00b7          	lui	ra,0xff0
80002d64:	0ff08093          	addi	ra,ra,255 # ff00ff <_start-0x7f00ff01>
80002d68:	70f0e713          	ori	a4,ra,1807
80002d6c:	00000013          	nop
80002d70:	00070313          	mv	t1,a4
80002d74:	00120213          	addi	tp,tp,1 # 1 <_start-0x7fffffff>
80002d78:	00200293          	li	t0,2
80002d7c:	fe5212e3          	bne	tp,t0,80002d60 <test_1408+0x8>
80002d80:	00ff03b7          	lui	t2,0xff0
80002d84:	7ff38393          	addi	t2,t2,2047 # ff07ff <_start-0x7f00f801>
80002d88:	00730463          	beq	t1,t2,80002d90 <test_1409>
80002d8c:	a7cfd06f          	j	80000008 <fail>

80002d90 <test_1409>:
80002d90:	58100193          	li	gp,1409
80002d94:	00000213          	li	tp,0
80002d98:	f00ff0b7          	lui	ra,0xf00ff
80002d9c:	00f08093          	addi	ra,ra,15 # f00ff00f <__global_pointer$+0x700f9dc7>
80002da0:	0f00e713          	ori	a4,ra,240
80002da4:	00000013          	nop
80002da8:	00000013          	nop
80002dac:	00070313          	mv	t1,a4
80002db0:	00120213          	addi	tp,tp,1 # 1 <_start-0x7fffffff>
80002db4:	00200293          	li	t0,2
80002db8:	fe5210e3          	bne	tp,t0,80002d98 <test_1409+0x8>
80002dbc:	f00ff3b7          	lui	t2,0xf00ff
80002dc0:	0ff38393          	addi	t2,t2,255 # f00ff0ff <__global_pointer$+0x700f9eb7>
80002dc4:	00730463          	beq	t1,t2,80002dcc <test_1410>
80002dc8:	a40fd06f          	j	80000008 <fail>

80002dcc <test_1410>:
80002dcc:	58200193          	li	gp,1410
80002dd0:	00000213          	li	tp,0
80002dd4:	0ff010b7          	lui	ra,0xff01
80002dd8:	ff008093          	addi	ra,ra,-16 # ff00ff0 <_start-0x700ff010>
80002ddc:	0f00e713          	ori	a4,ra,240
80002de0:	00120213          	addi	tp,tp,1 # 1 <_start-0x7fffffff>
80002de4:	00200293          	li	t0,2
80002de8:	fe5216e3          	bne	tp,t0,80002dd4 <test_1410+0x8>
80002dec:	0ff013b7          	lui	t2,0xff01
80002df0:	ff038393          	addi	t2,t2,-16 # ff00ff0 <_start-0x700ff010>
80002df4:	00770463          	beq	a4,t2,80002dfc <test_1411>
80002df8:	a10fd06f          	j	80000008 <fail>

80002dfc <test_1411>:
80002dfc:	58300193          	li	gp,1411
80002e00:	00000213          	li	tp,0
80002e04:	00ff00b7          	lui	ra,0xff0
80002e08:	0ff08093          	addi	ra,ra,255 # ff00ff <_start-0x7f00ff01>
80002e0c:	00000013          	nop
80002e10:	f0f0e713          	ori	a4,ra,-241
80002e14:	00120213          	addi	tp,tp,1 # 1 <_start-0x7fffffff>
80002e18:	00200293          	li	t0,2
80002e1c:	fe5214e3          	bne	tp,t0,80002e04 <test_1411+0x8>
80002e20:	fff00393          	li	t2,-1
80002e24:	00770463          	beq	a4,t2,80002e2c <test_1412>
80002e28:	9e0fd06f          	j	80000008 <fail>

80002e2c <test_1412>:
80002e2c:	58400193          	li	gp,1412
80002e30:	00000213          	li	tp,0
80002e34:	f00ff0b7          	lui	ra,0xf00ff
80002e38:	00f08093          	addi	ra,ra,15 # f00ff00f <__global_pointer$+0x700f9dc7>
80002e3c:	00000013          	nop
80002e40:	00000013          	nop
80002e44:	0f00e713          	ori	a4,ra,240
80002e48:	00120213          	addi	tp,tp,1 # 1 <_start-0x7fffffff>
80002e4c:	00200293          	li	t0,2
80002e50:	fe5212e3          	bne	tp,t0,80002e34 <test_1412+0x8>
80002e54:	f00ff3b7          	lui	t2,0xf00ff
80002e58:	0ff38393          	addi	t2,t2,255 # f00ff0ff <__global_pointer$+0x700f9eb7>
80002e5c:	00770463          	beq	a4,t2,80002e64 <test_1413>
80002e60:	9a8fd06f          	j	80000008 <fail>

80002e64 <test_1413>:
80002e64:	58500193          	li	gp,1413
80002e68:	0f006093          	ori	ra,zero,240
80002e6c:	0f000393          	li	t2,240
80002e70:	00708463          	beq	ra,t2,80002e78 <test_1414>
80002e74:	994fd06f          	j	80000008 <fail>

80002e78 <test_1414>:
80002e78:	58600193          	li	gp,1414
80002e7c:	00ff00b7          	lui	ra,0xff0
80002e80:	0ff08093          	addi	ra,ra,255 # ff00ff <_start-0x7f00ff01>
80002e84:	70f0e013          	ori	zero,ra,1807
80002e88:	00000393          	li	t2,0
80002e8c:	00700463          	beq	zero,t2,80002e94 <test_1502>
80002e90:	978fd06f          	j	80000008 <fail>

80002e94 <test_1502>:
80002e94:	5de00193          	li	gp,1502
80002e98:	00100093          	li	ra,1
80002e9c:	00009713          	slli	a4,ra,0x0
80002ea0:	00100393          	li	t2,1
80002ea4:	00770463          	beq	a4,t2,80002eac <test_1503>
80002ea8:	960fd06f          	j	80000008 <fail>

80002eac <test_1503>:
80002eac:	5df00193          	li	gp,1503
80002eb0:	00100093          	li	ra,1
80002eb4:	00109713          	slli	a4,ra,0x1
80002eb8:	00200393          	li	t2,2
80002ebc:	00770463          	beq	a4,t2,80002ec4 <test_1504>
80002ec0:	948fd06f          	j	80000008 <fail>

80002ec4 <test_1504>:
80002ec4:	5e000193          	li	gp,1504
80002ec8:	00100093          	li	ra,1
80002ecc:	00709713          	slli	a4,ra,0x7
80002ed0:	08000393          	li	t2,128
80002ed4:	00770463          	beq	a4,t2,80002edc <test_1505>
80002ed8:	930fd06f          	j	80000008 <fail>

80002edc <test_1505>:
80002edc:	5e100193          	li	gp,1505
80002ee0:	00100093          	li	ra,1
80002ee4:	00e09713          	slli	a4,ra,0xe
80002ee8:	000043b7          	lui	t2,0x4
80002eec:	00770463          	beq	a4,t2,80002ef4 <test_1506>
80002ef0:	918fd06f          	j	80000008 <fail>

80002ef4 <test_1506>:
80002ef4:	5e200193          	li	gp,1506
80002ef8:	00100093          	li	ra,1
80002efc:	01f09713          	slli	a4,ra,0x1f
80002f00:	800003b7          	lui	t2,0x80000
80002f04:	00770463          	beq	a4,t2,80002f0c <test_1507>
80002f08:	900fd06f          	j	80000008 <fail>

80002f0c <test_1507>:
80002f0c:	5e300193          	li	gp,1507
80002f10:	fff00093          	li	ra,-1
80002f14:	00009713          	slli	a4,ra,0x0
80002f18:	fff00393          	li	t2,-1
80002f1c:	00770463          	beq	a4,t2,80002f24 <test_1508>
80002f20:	8e8fd06f          	j	80000008 <fail>

80002f24 <test_1508>:
80002f24:	5e400193          	li	gp,1508
80002f28:	fff00093          	li	ra,-1
80002f2c:	00109713          	slli	a4,ra,0x1
80002f30:	ffe00393          	li	t2,-2
80002f34:	00770463          	beq	a4,t2,80002f3c <test_1509>
80002f38:	8d0fd06f          	j	80000008 <fail>

80002f3c <test_1509>:
80002f3c:	5e500193          	li	gp,1509
80002f40:	fff00093          	li	ra,-1
80002f44:	00709713          	slli	a4,ra,0x7
80002f48:	f8000393          	li	t2,-128
80002f4c:	00770463          	beq	a4,t2,80002f54 <test_1510>
80002f50:	8b8fd06f          	j	80000008 <fail>

80002f54 <test_1510>:
80002f54:	5e600193          	li	gp,1510
80002f58:	fff00093          	li	ra,-1
80002f5c:	00e09713          	slli	a4,ra,0xe
80002f60:	ffffc3b7          	lui	t2,0xffffc
80002f64:	00770463          	beq	a4,t2,80002f6c <test_1511>
80002f68:	8a0fd06f          	j	80000008 <fail>

80002f6c <test_1511>:
80002f6c:	5e700193          	li	gp,1511
80002f70:	fff00093          	li	ra,-1
80002f74:	01f09713          	slli	a4,ra,0x1f
80002f78:	800003b7          	lui	t2,0x80000
80002f7c:	00770463          	beq	a4,t2,80002f84 <test_1512>
80002f80:	888fd06f          	j	80000008 <fail>

80002f84 <test_1512>:
80002f84:	5e800193          	li	gp,1512
80002f88:	212120b7          	lui	ra,0x21212
80002f8c:	12108093          	addi	ra,ra,289 # 21212121 <_start-0x5edededf>
80002f90:	00009713          	slli	a4,ra,0x0
80002f94:	212123b7          	lui	t2,0x21212
80002f98:	12138393          	addi	t2,t2,289 # 21212121 <_start-0x5edededf>
80002f9c:	00770463          	beq	a4,t2,80002fa4 <test_1513>
80002fa0:	868fd06f          	j	80000008 <fail>

80002fa4 <test_1513>:
80002fa4:	5e900193          	li	gp,1513
80002fa8:	212120b7          	lui	ra,0x21212
80002fac:	12108093          	addi	ra,ra,289 # 21212121 <_start-0x5edededf>
80002fb0:	00109713          	slli	a4,ra,0x1
80002fb4:	424243b7          	lui	t2,0x42424
80002fb8:	24238393          	addi	t2,t2,578 # 42424242 <_start-0x3dbdbdbe>
80002fbc:	00770463          	beq	a4,t2,80002fc4 <test_1514>
80002fc0:	848fd06f          	j	80000008 <fail>

80002fc4 <test_1514>:
80002fc4:	5ea00193          	li	gp,1514
80002fc8:	212120b7          	lui	ra,0x21212
80002fcc:	12108093          	addi	ra,ra,289 # 21212121 <_start-0x5edededf>
80002fd0:	00709713          	slli	a4,ra,0x7
80002fd4:	909093b7          	lui	t2,0x90909
80002fd8:	08038393          	addi	t2,t2,128 # 90909080 <__global_pointer$+0x10903e38>
80002fdc:	00770463          	beq	a4,t2,80002fe4 <test_1515>
80002fe0:	828fd06f          	j	80000008 <fail>

80002fe4 <test_1515>:
80002fe4:	5eb00193          	li	gp,1515
80002fe8:	212120b7          	lui	ra,0x21212
80002fec:	12108093          	addi	ra,ra,289 # 21212121 <_start-0x5edededf>
80002ff0:	00e09713          	slli	a4,ra,0xe
80002ff4:	484843b7          	lui	t2,0x48484
80002ff8:	00770463          	beq	a4,t2,80003000 <test_1516>
80002ffc:	80cfd06f          	j	80000008 <fail>

80003000 <test_1516>:
80003000:	5ec00193          	li	gp,1516
80003004:	212120b7          	lui	ra,0x21212
80003008:	12108093          	addi	ra,ra,289 # 21212121 <_start-0x5edededf>
8000300c:	01f09713          	slli	a4,ra,0x1f
80003010:	800003b7          	lui	t2,0x80000
80003014:	00770463          	beq	a4,t2,8000301c <test_1517>
80003018:	ff1fc06f          	j	80000008 <fail>

8000301c <test_1517>:
8000301c:	5ed00193          	li	gp,1517
80003020:	00100093          	li	ra,1
80003024:	00709093          	slli	ra,ra,0x7
80003028:	08000393          	li	t2,128
8000302c:	00708463          	beq	ra,t2,80003034 <test_1518>
80003030:	fd9fc06f          	j	80000008 <fail>

80003034 <test_1518>:
80003034:	5ee00193          	li	gp,1518
80003038:	00000213          	li	tp,0
8000303c:	00100093          	li	ra,1
80003040:	00709713          	slli	a4,ra,0x7
80003044:	00070313          	mv	t1,a4
80003048:	00120213          	addi	tp,tp,1 # 1 <_start-0x7fffffff>
8000304c:	00200293          	li	t0,2
80003050:	fe5216e3          	bne	tp,t0,8000303c <test_1518+0x8>
80003054:	08000393          	li	t2,128
80003058:	00730463          	beq	t1,t2,80003060 <test_1519>
8000305c:	fadfc06f          	j	80000008 <fail>

80003060 <test_1519>:
80003060:	5ef00193          	li	gp,1519
80003064:	00000213          	li	tp,0
80003068:	00100093          	li	ra,1
8000306c:	00e09713          	slli	a4,ra,0xe
80003070:	00000013          	nop
80003074:	00070313          	mv	t1,a4
80003078:	00120213          	addi	tp,tp,1 # 1 <_start-0x7fffffff>
8000307c:	00200293          	li	t0,2
80003080:	fe5214e3          	bne	tp,t0,80003068 <test_1519+0x8>
80003084:	000043b7          	lui	t2,0x4
80003088:	00730463          	beq	t1,t2,80003090 <test_1520>
8000308c:	f7dfc06f          	j	80000008 <fail>

80003090 <test_1520>:
80003090:	5f000193          	li	gp,1520
80003094:	00000213          	li	tp,0
80003098:	00100093          	li	ra,1
8000309c:	01f09713          	slli	a4,ra,0x1f
800030a0:	00000013          	nop
800030a4:	00000013          	nop
800030a8:	00070313          	mv	t1,a4
800030ac:	00120213          	addi	tp,tp,1 # 1 <_start-0x7fffffff>
800030b0:	00200293          	li	t0,2
800030b4:	fe5212e3          	bne	tp,t0,80003098 <test_1520+0x8>
800030b8:	800003b7          	lui	t2,0x80000
800030bc:	00730463          	beq	t1,t2,800030c4 <test_1521>
800030c0:	f49fc06f          	j	80000008 <fail>

800030c4 <test_1521>:
800030c4:	5f100193          	li	gp,1521
800030c8:	00000213          	li	tp,0
800030cc:	00100093          	li	ra,1
800030d0:	00709713          	slli	a4,ra,0x7
800030d4:	00120213          	addi	tp,tp,1 # 1 <_start-0x7fffffff>
800030d8:	00200293          	li	t0,2
800030dc:	fe5218e3          	bne	tp,t0,800030cc <test_1521+0x8>
800030e0:	08000393          	li	t2,128
800030e4:	00770463          	beq	a4,t2,800030ec <test_1522>
800030e8:	f21fc06f          	j	80000008 <fail>

800030ec <test_1522>:
800030ec:	5f200193          	li	gp,1522
800030f0:	00000213          	li	tp,0
800030f4:	00100093          	li	ra,1
800030f8:	00000013          	nop
800030fc:	00e09713          	slli	a4,ra,0xe
80003100:	00120213          	addi	tp,tp,1 # 1 <_start-0x7fffffff>
80003104:	00200293          	li	t0,2
80003108:	fe5216e3          	bne	tp,t0,800030f4 <test_1522+0x8>
8000310c:	000043b7          	lui	t2,0x4
80003110:	00770463          	beq	a4,t2,80003118 <test_1523>
80003114:	ef5fc06f          	j	80000008 <fail>

80003118 <test_1523>:
80003118:	5f300193          	li	gp,1523
8000311c:	00000213          	li	tp,0
80003120:	00100093          	li	ra,1
80003124:	00000013          	nop
80003128:	00000013          	nop
8000312c:	01f09713          	slli	a4,ra,0x1f
80003130:	00120213          	addi	tp,tp,1 # 1 <_start-0x7fffffff>
80003134:	00200293          	li	t0,2
80003138:	fe5214e3          	bne	tp,t0,80003120 <test_1523+0x8>
8000313c:	800003b7          	lui	t2,0x80000
80003140:	00770463          	beq	a4,t2,80003148 <test_1524>
80003144:	ec5fc06f          	j	80000008 <fail>

80003148 <test_1524>:
80003148:	5f400193          	li	gp,1524
8000314c:	01f01093          	slli	ra,zero,0x1f
80003150:	00000393          	li	t2,0
80003154:	00708463          	beq	ra,t2,8000315c <test_1525>
80003158:	eb1fc06f          	j	80000008 <fail>

8000315c <test_1525>:
8000315c:	5f500193          	li	gp,1525
80003160:	02100093          	li	ra,33
80003164:	01409013          	slli	zero,ra,0x14
80003168:	00000393          	li	t2,0
8000316c:	00700463          	beq	zero,t2,80003174 <test_1602>
80003170:	e99fc06f          	j	80000008 <fail>

80003174 <test_1602>:
80003174:	64200193          	li	gp,1602
80003178:	800000b7          	lui	ra,0x80000
8000317c:	0000d713          	srli	a4,ra,0x0
80003180:	800003b7          	lui	t2,0x80000
80003184:	00770463          	beq	a4,t2,8000318c <test_1603>
80003188:	e81fc06f          	j	80000008 <fail>

8000318c <test_1603>:
8000318c:	64300193          	li	gp,1603
80003190:	800000b7          	lui	ra,0x80000
80003194:	0010d713          	srli	a4,ra,0x1
80003198:	400003b7          	lui	t2,0x40000
8000319c:	00770463          	beq	a4,t2,800031a4 <test_1604>
800031a0:	e69fc06f          	j	80000008 <fail>

800031a4 <test_1604>:
800031a4:	64400193          	li	gp,1604
800031a8:	800000b7          	lui	ra,0x80000
800031ac:	0070d713          	srli	a4,ra,0x7
800031b0:	010003b7          	lui	t2,0x1000
800031b4:	00770463          	beq	a4,t2,800031bc <test_1605>
800031b8:	e51fc06f          	j	80000008 <fail>

800031bc <test_1605>:
800031bc:	64500193          	li	gp,1605
800031c0:	800000b7          	lui	ra,0x80000
800031c4:	00e0d713          	srli	a4,ra,0xe
800031c8:	000203b7          	lui	t2,0x20
800031cc:	00770463          	beq	a4,t2,800031d4 <test_1606>
800031d0:	e39fc06f          	j	80000008 <fail>

800031d4 <test_1606>:
800031d4:	64600193          	li	gp,1606
800031d8:	800000b7          	lui	ra,0x80000
800031dc:	00108093          	addi	ra,ra,1 # 80000001 <__global_pointer$+0xffffadb9>
800031e0:	01f0d713          	srli	a4,ra,0x1f
800031e4:	00100393          	li	t2,1
800031e8:	00770463          	beq	a4,t2,800031f0 <test_1607>
800031ec:	e1dfc06f          	j	80000008 <fail>

800031f0 <test_1607>:
800031f0:	64700193          	li	gp,1607
800031f4:	fff00093          	li	ra,-1
800031f8:	0000d713          	srli	a4,ra,0x0
800031fc:	fff00393          	li	t2,-1
80003200:	00770463          	beq	a4,t2,80003208 <test_1608>
80003204:	e05fc06f          	j	80000008 <fail>

80003208 <test_1608>:
80003208:	64800193          	li	gp,1608
8000320c:	fff00093          	li	ra,-1
80003210:	0010d713          	srli	a4,ra,0x1
80003214:	800003b7          	lui	t2,0x80000
80003218:	fff38393          	addi	t2,t2,-1 # 7fffffff <__global_pointer$+0xffffadb7>
8000321c:	00770463          	beq	a4,t2,80003224 <test_1609>
80003220:	de9fc06f          	j	80000008 <fail>

80003224 <test_1609>:
80003224:	64900193          	li	gp,1609
80003228:	fff00093          	li	ra,-1
8000322c:	0070d713          	srli	a4,ra,0x7
80003230:	020003b7          	lui	t2,0x2000
80003234:	fff38393          	addi	t2,t2,-1 # 1ffffff <_start-0x7e000001>
80003238:	00770463          	beq	a4,t2,80003240 <test_1610>
8000323c:	dcdfc06f          	j	80000008 <fail>

80003240 <test_1610>:
80003240:	64a00193          	li	gp,1610
80003244:	fff00093          	li	ra,-1
80003248:	00e0d713          	srli	a4,ra,0xe
8000324c:	000403b7          	lui	t2,0x40
80003250:	fff38393          	addi	t2,t2,-1 # 3ffff <_start-0x7ffc0001>
80003254:	00770463          	beq	a4,t2,8000325c <test_1611>
80003258:	db1fc06f          	j	80000008 <fail>

8000325c <test_1611>:
8000325c:	64b00193          	li	gp,1611
80003260:	fff00093          	li	ra,-1
80003264:	01f0d713          	srli	a4,ra,0x1f
80003268:	00100393          	li	t2,1
8000326c:	00770463          	beq	a4,t2,80003274 <test_1612>
80003270:	d99fc06f          	j	80000008 <fail>

80003274 <test_1612>:
80003274:	64c00193          	li	gp,1612
80003278:	212120b7          	lui	ra,0x21212
8000327c:	12108093          	addi	ra,ra,289 # 21212121 <_start-0x5edededf>
80003280:	0000d713          	srli	a4,ra,0x0
80003284:	212123b7          	lui	t2,0x21212
80003288:	12138393          	addi	t2,t2,289 # 21212121 <_start-0x5edededf>
8000328c:	00770463          	beq	a4,t2,80003294 <test_1613>
80003290:	d79fc06f          	j	80000008 <fail>

80003294 <test_1613>:
80003294:	64d00193          	li	gp,1613
80003298:	212120b7          	lui	ra,0x21212
8000329c:	12108093          	addi	ra,ra,289 # 21212121 <_start-0x5edededf>
800032a0:	0010d713          	srli	a4,ra,0x1
800032a4:	109093b7          	lui	t2,0x10909
800032a8:	09038393          	addi	t2,t2,144 # 10909090 <_start-0x6f6f6f70>
800032ac:	00770463          	beq	a4,t2,800032b4 <test_1614>
800032b0:	d59fc06f          	j	80000008 <fail>

800032b4 <test_1614>:
800032b4:	64e00193          	li	gp,1614
800032b8:	212120b7          	lui	ra,0x21212
800032bc:	12108093          	addi	ra,ra,289 # 21212121 <_start-0x5edededf>
800032c0:	0070d713          	srli	a4,ra,0x7
800032c4:	004243b7          	lui	t2,0x424
800032c8:	24238393          	addi	t2,t2,578 # 424242 <_start-0x7fbdbdbe>
800032cc:	00770463          	beq	a4,t2,800032d4 <test_1615>
800032d0:	d39fc06f          	j	80000008 <fail>

800032d4 <test_1615>:
800032d4:	64f00193          	li	gp,1615
800032d8:	212120b7          	lui	ra,0x21212
800032dc:	12108093          	addi	ra,ra,289 # 21212121 <_start-0x5edededf>
800032e0:	00e0d713          	srli	a4,ra,0xe
800032e4:	000083b7          	lui	t2,0x8
800032e8:	48438393          	addi	t2,t2,1156 # 8484 <_start-0x7fff7b7c>
800032ec:	00770463          	beq	a4,t2,800032f4 <test_1616>
800032f0:	d19fc06f          	j	80000008 <fail>

800032f4 <test_1616>:
800032f4:	65000193          	li	gp,1616
800032f8:	212120b7          	lui	ra,0x21212
800032fc:	12108093          	addi	ra,ra,289 # 21212121 <_start-0x5edededf>
80003300:	01f0d713          	srli	a4,ra,0x1f
80003304:	00000393          	li	t2,0
80003308:	00770463          	beq	a4,t2,80003310 <test_1617>
8000330c:	cfdfc06f          	j	80000008 <fail>

80003310 <test_1617>:
80003310:	65100193          	li	gp,1617
80003314:	800000b7          	lui	ra,0x80000
80003318:	0070d093          	srli	ra,ra,0x7
8000331c:	010003b7          	lui	t2,0x1000
80003320:	00708463          	beq	ra,t2,80003328 <test_1618>
80003324:	ce5fc06f          	j	80000008 <fail>

80003328 <test_1618>:
80003328:	65200193          	li	gp,1618
8000332c:	00000213          	li	tp,0
80003330:	800000b7          	lui	ra,0x80000
80003334:	0070d713          	srli	a4,ra,0x7
80003338:	00070313          	mv	t1,a4
8000333c:	00120213          	addi	tp,tp,1 # 1 <_start-0x7fffffff>
80003340:	00200293          	li	t0,2
80003344:	fe5216e3          	bne	tp,t0,80003330 <test_1618+0x8>
80003348:	010003b7          	lui	t2,0x1000
8000334c:	00730463          	beq	t1,t2,80003354 <test_1619>
80003350:	cb9fc06f          	j	80000008 <fail>

80003354 <test_1619>:
80003354:	65300193          	li	gp,1619
80003358:	00000213          	li	tp,0
8000335c:	800000b7          	lui	ra,0x80000
80003360:	00e0d713          	srli	a4,ra,0xe
80003364:	00000013          	nop
80003368:	00070313          	mv	t1,a4
8000336c:	00120213          	addi	tp,tp,1 # 1 <_start-0x7fffffff>
80003370:	00200293          	li	t0,2
80003374:	fe5214e3          	bne	tp,t0,8000335c <test_1619+0x8>
80003378:	000203b7          	lui	t2,0x20
8000337c:	00730463          	beq	t1,t2,80003384 <test_1620>
80003380:	c89fc06f          	j	80000008 <fail>

80003384 <test_1620>:
80003384:	65400193          	li	gp,1620
80003388:	00000213          	li	tp,0
8000338c:	800000b7          	lui	ra,0x80000
80003390:	00108093          	addi	ra,ra,1 # 80000001 <__global_pointer$+0xffffadb9>
80003394:	01f0d713          	srli	a4,ra,0x1f
80003398:	00000013          	nop
8000339c:	00000013          	nop
800033a0:	00070313          	mv	t1,a4
800033a4:	00120213          	addi	tp,tp,1 # 1 <_start-0x7fffffff>
800033a8:	00200293          	li	t0,2
800033ac:	fe5210e3          	bne	tp,t0,8000338c <test_1620+0x8>
800033b0:	00100393          	li	t2,1
800033b4:	00730463          	beq	t1,t2,800033bc <test_1621>
800033b8:	c51fc06f          	j	80000008 <fail>

800033bc <test_1621>:
800033bc:	65500193          	li	gp,1621
800033c0:	00000213          	li	tp,0
800033c4:	800000b7          	lui	ra,0x80000
800033c8:	0070d713          	srli	a4,ra,0x7
800033cc:	00120213          	addi	tp,tp,1 # 1 <_start-0x7fffffff>
800033d0:	00200293          	li	t0,2
800033d4:	fe5218e3          	bne	tp,t0,800033c4 <test_1621+0x8>
800033d8:	010003b7          	lui	t2,0x1000
800033dc:	00770463          	beq	a4,t2,800033e4 <test_1622>
800033e0:	c29fc06f          	j	80000008 <fail>

800033e4 <test_1622>:
800033e4:	65600193          	li	gp,1622
800033e8:	00000213          	li	tp,0
800033ec:	800000b7          	lui	ra,0x80000
800033f0:	00000013          	nop
800033f4:	00e0d713          	srli	a4,ra,0xe
800033f8:	00120213          	addi	tp,tp,1 # 1 <_start-0x7fffffff>
800033fc:	00200293          	li	t0,2
80003400:	fe5216e3          	bne	tp,t0,800033ec <test_1622+0x8>
80003404:	000203b7          	lui	t2,0x20
80003408:	00770463          	beq	a4,t2,80003410 <test_1623>
8000340c:	bfdfc06f          	j	80000008 <fail>

80003410 <test_1623>:
80003410:	65700193          	li	gp,1623
80003414:	00000213          	li	tp,0
80003418:	800000b7          	lui	ra,0x80000
8000341c:	00108093          	addi	ra,ra,1 # 80000001 <__global_pointer$+0xffffadb9>
80003420:	00000013          	nop
80003424:	00000013          	nop
80003428:	01f0d713          	srli	a4,ra,0x1f
8000342c:	00120213          	addi	tp,tp,1 # 1 <_start-0x7fffffff>
80003430:	00200293          	li	t0,2
80003434:	fe5212e3          	bne	tp,t0,80003418 <test_1623+0x8>
80003438:	00100393          	li	t2,1
8000343c:	00770463          	beq	a4,t2,80003444 <test_1624>
80003440:	bc9fc06f          	j	80000008 <fail>

80003444 <test_1624>:
80003444:	65800193          	li	gp,1624
80003448:	00405093          	srli	ra,zero,0x4
8000344c:	00000393          	li	t2,0
80003450:	00708463          	beq	ra,t2,80003458 <test_1625>
80003454:	bb5fc06f          	j	80000008 <fail>

80003458 <test_1625>:
80003458:	65900193          	li	gp,1625
8000345c:	02100093          	li	ra,33
80003460:	00a0d013          	srli	zero,ra,0xa
80003464:	00000393          	li	t2,0
80003468:	00700463          	beq	zero,t2,80003470 <test_1702>
8000346c:	b9dfc06f          	j	80000008 <fail>

80003470 <test_1702>:
80003470:	6a600193          	li	gp,1702
80003474:	000000b7          	lui	ra,0x0
80003478:	00000393          	li	t2,0
8000347c:	00708463          	beq	ra,t2,80003484 <test_1703>
80003480:	b89fc06f          	j	80000008 <fail>

80003484 <test_1703>:
80003484:	6a700193          	li	gp,1703
80003488:	fffff0b7          	lui	ra,0xfffff
8000348c:	0010d093          	srli	ra,ra,0x1
80003490:	800003b7          	lui	t2,0x80000
80003494:	80038393          	addi	t2,t2,-2048 # 7ffff800 <__global_pointer$+0xffffa5b8>
80003498:	00708463          	beq	ra,t2,800034a0 <test_1704>
8000349c:	b6dfc06f          	j	80000008 <fail>

800034a0 <test_1704>:
800034a0:	6a800193          	li	gp,1704
800034a4:	7ffff0b7          	lui	ra,0x7ffff
800034a8:	0140d093          	srli	ra,ra,0x14
800034ac:	7ff00393          	li	t2,2047
800034b0:	00708463          	beq	ra,t2,800034b8 <test_1705>
800034b4:	b55fc06f          	j	80000008 <fail>

800034b8 <test_1705>:
800034b8:	6a900193          	li	gp,1705
800034bc:	800000b7          	lui	ra,0x80000
800034c0:	0140d093          	srli	ra,ra,0x14
800034c4:	000013b7          	lui	t2,0x1
800034c8:	80038393          	addi	t2,t2,-2048 # 800 <_start-0x7ffff800>
800034cc:	00708463          	beq	ra,t2,800034d4 <test_1706>
800034d0:	b39fc06f          	j	80000008 <fail>

800034d4 <test_1706>:
800034d4:	6aa00193          	li	gp,1706
800034d8:	80000037          	lui	zero,0x80000
800034dc:	00000393          	li	t2,0
800034e0:	00700463          	beq	zero,t2,800034e8 <test_1802>
800034e4:	b25fc06f          	j	80000008 <fail>

800034e8 <test_1802>:
800034e8:	70a00193          	li	gp,1802
800034ec:	00002097          	auipc	ra,0x2
800034f0:	ce808093          	addi	ra,ra,-792 # 800051d4 <__BSS_END__+0x6e4>
800034f4:	00aa0137          	lui	sp,0xaa0
800034f8:	0aa10113          	addi	sp,sp,170 # aa00aa <_start-0x7f55ff56>
800034fc:	00000797          	auipc	a5,0x0
80003500:	01478793          	addi	a5,a5,20 # 80003510 <test_1802+0x28>
80003504:	0020a023          	sw	sp,0(ra)
80003508:	0000a703          	lw	a4,0(ra)
8000350c:	0080006f          	j	80003514 <test_1802+0x2c>
80003510:	00010713          	mv	a4,sp
80003514:	00aa03b7          	lui	t2,0xaa0
80003518:	0aa38393          	addi	t2,t2,170 # aa00aa <_start-0x7f55ff56>
8000351c:	00770463          	beq	a4,t2,80003524 <test_1803>
80003520:	ae9fc06f          	j	80000008 <fail>

80003524 <test_1803>:
80003524:	70b00193          	li	gp,1803
80003528:	00002097          	auipc	ra,0x2
8000352c:	cb008093          	addi	ra,ra,-848 # 800051d8 <__BSS_END__+0x6e8>
80003530:	aa00b137          	lui	sp,0xaa00b
80003534:	a0010113          	addi	sp,sp,-1536 # aa00aa00 <__global_pointer$+0x2a0057b8>
80003538:	00000797          	auipc	a5,0x0
8000353c:	01478793          	addi	a5,a5,20 # 8000354c <test_1803+0x28>
80003540:	0020a223          	sw	sp,4(ra)
80003544:	0040a703          	lw	a4,4(ra)
80003548:	0080006f          	j	80003550 <test_1803+0x2c>
8000354c:	00010713          	mv	a4,sp
80003550:	aa00b3b7          	lui	t2,0xaa00b
80003554:	a0038393          	addi	t2,t2,-1536 # aa00aa00 <__global_pointer$+0x2a0057b8>
80003558:	00770463          	beq	a4,t2,80003560 <test_1804>
8000355c:	aadfc06f          	j	80000008 <fail>

80003560 <test_1804>:
80003560:	70c00193          	li	gp,1804
80003564:	00002097          	auipc	ra,0x2
80003568:	c7808093          	addi	ra,ra,-904 # 800051dc <__BSS_END__+0x6ec>
8000356c:	0aa01137          	lui	sp,0xaa01
80003570:	aa010113          	addi	sp,sp,-1376 # aa00aa0 <_start-0x755ff560>
80003574:	00000797          	auipc	a5,0x0
80003578:	01478793          	addi	a5,a5,20 # 80003588 <test_1804+0x28>
8000357c:	0020a423          	sw	sp,8(ra)
80003580:	0080a703          	lw	a4,8(ra)
80003584:	0080006f          	j	8000358c <test_1804+0x2c>
80003588:	00010713          	mv	a4,sp
8000358c:	0aa013b7          	lui	t2,0xaa01
80003590:	aa038393          	addi	t2,t2,-1376 # aa00aa0 <_start-0x755ff560>
80003594:	00770463          	beq	a4,t2,8000359c <test_1805>
80003598:	a71fc06f          	j	80000008 <fail>

8000359c <test_1805>:
8000359c:	70d00193          	li	gp,1805
800035a0:	00002097          	auipc	ra,0x2
800035a4:	c4008093          	addi	ra,ra,-960 # 800051e0 <__BSS_END__+0x6f0>
800035a8:	a00aa137          	lui	sp,0xa00aa
800035ac:	00a10113          	addi	sp,sp,10 # a00aa00a <__global_pointer$+0x200a4dc2>
800035b0:	00000797          	auipc	a5,0x0
800035b4:	01478793          	addi	a5,a5,20 # 800035c4 <test_1805+0x28>
800035b8:	0020a623          	sw	sp,12(ra)
800035bc:	00c0a703          	lw	a4,12(ra)
800035c0:	0080006f          	j	800035c8 <test_1805+0x2c>
800035c4:	00010713          	mv	a4,sp
800035c8:	a00aa3b7          	lui	t2,0xa00aa
800035cc:	00a38393          	addi	t2,t2,10 # a00aa00a <__global_pointer$+0x200a4dc2>
800035d0:	00770463          	beq	a4,t2,800035d8 <test_1806>
800035d4:	a35fc06f          	j	80000008 <fail>

800035d8 <test_1806>:
800035d8:	70e00193          	li	gp,1806
800035dc:	00002097          	auipc	ra,0x2
800035e0:	c2408093          	addi	ra,ra,-988 # 80005200 <__BSS_END__+0x710>
800035e4:	00aa0137          	lui	sp,0xaa0
800035e8:	0aa10113          	addi	sp,sp,170 # aa00aa <_start-0x7f55ff56>
800035ec:	00000797          	auipc	a5,0x0
800035f0:	01478793          	addi	a5,a5,20 # 80003600 <test_1806+0x28>
800035f4:	fe20aa23          	sw	sp,-12(ra)
800035f8:	ff40a703          	lw	a4,-12(ra)
800035fc:	0080006f          	j	80003604 <test_1806+0x2c>
80003600:	00010713          	mv	a4,sp
80003604:	00aa03b7          	lui	t2,0xaa0
80003608:	0aa38393          	addi	t2,t2,170 # aa00aa <_start-0x7f55ff56>
8000360c:	00770463          	beq	a4,t2,80003614 <test_1807>
80003610:	9f9fc06f          	j	80000008 <fail>

80003614 <test_1807>:
80003614:	70f00193          	li	gp,1807
80003618:	00002097          	auipc	ra,0x2
8000361c:	bec08093          	addi	ra,ra,-1044 # 80005204 <__BSS_END__+0x714>
80003620:	aa00b137          	lui	sp,0xaa00b
80003624:	a0010113          	addi	sp,sp,-1536 # aa00aa00 <__global_pointer$+0x2a0057b8>
80003628:	00000797          	auipc	a5,0x0
8000362c:	01478793          	addi	a5,a5,20 # 8000363c <test_1807+0x28>
80003630:	fe20ac23          	sw	sp,-8(ra)
80003634:	ff80a703          	lw	a4,-8(ra)
80003638:	0080006f          	j	80003640 <test_1807+0x2c>
8000363c:	00010713          	mv	a4,sp
80003640:	aa00b3b7          	lui	t2,0xaa00b
80003644:	a0038393          	addi	t2,t2,-1536 # aa00aa00 <__global_pointer$+0x2a0057b8>
80003648:	00770463          	beq	a4,t2,80003650 <test_1808>
8000364c:	9bdfc06f          	j	80000008 <fail>

80003650 <test_1808>:
80003650:	71000193          	li	gp,1808
80003654:	00002097          	auipc	ra,0x2
80003658:	bb408093          	addi	ra,ra,-1100 # 80005208 <__BSS_END__+0x718>
8000365c:	0aa01137          	lui	sp,0xaa01
80003660:	aa010113          	addi	sp,sp,-1376 # aa00aa0 <_start-0x755ff560>
80003664:	00000797          	auipc	a5,0x0
80003668:	01478793          	addi	a5,a5,20 # 80003678 <test_1808+0x28>
8000366c:	fe20ae23          	sw	sp,-4(ra)
80003670:	ffc0a703          	lw	a4,-4(ra)
80003674:	0080006f          	j	8000367c <test_1808+0x2c>
80003678:	00010713          	mv	a4,sp
8000367c:	0aa013b7          	lui	t2,0xaa01
80003680:	aa038393          	addi	t2,t2,-1376 # aa00aa0 <_start-0x755ff560>
80003684:	00770463          	beq	a4,t2,8000368c <test_1809>
80003688:	981fc06f          	j	80000008 <fail>

8000368c <test_1809>:
8000368c:	71100193          	li	gp,1809
80003690:	00002097          	auipc	ra,0x2
80003694:	b7c08093          	addi	ra,ra,-1156 # 8000520c <__BSS_END__+0x71c>
80003698:	a00aa137          	lui	sp,0xa00aa
8000369c:	00a10113          	addi	sp,sp,10 # a00aa00a <__global_pointer$+0x200a4dc2>
800036a0:	00000797          	auipc	a5,0x0
800036a4:	01478793          	addi	a5,a5,20 # 800036b4 <test_1809+0x28>
800036a8:	0020a023          	sw	sp,0(ra)
800036ac:	0000a703          	lw	a4,0(ra)
800036b0:	0080006f          	j	800036b8 <test_1809+0x2c>
800036b4:	00010713          	mv	a4,sp
800036b8:	a00aa3b7          	lui	t2,0xa00aa
800036bc:	00a38393          	addi	t2,t2,10 # a00aa00a <__global_pointer$+0x200a4dc2>
800036c0:	00770463          	beq	a4,t2,800036c8 <test_1810>
800036c4:	945fc06f          	j	80000008 <fail>

800036c8 <test_1810>:
800036c8:	71200193          	li	gp,1810
800036cc:	00002097          	auipc	ra,0x2
800036d0:	b4808093          	addi	ra,ra,-1208 # 80005214 <__BSS_END__+0x724>
800036d4:	12345137          	lui	sp,0x12345
800036d8:	67810113          	addi	sp,sp,1656 # 12345678 <_start-0x6dcba988>
800036dc:	fe008213          	addi	tp,ra,-32
800036e0:	02222023          	sw	sp,32(tp) # 20 <_start-0x7fffffe0>
800036e4:	0000a283          	lw	t0,0(ra)
800036e8:	123453b7          	lui	t2,0x12345
800036ec:	67838393          	addi	t2,t2,1656 # 12345678 <_start-0x6dcba988>
800036f0:	00728463          	beq	t0,t2,800036f8 <test_1811>
800036f4:	915fc06f          	j	80000008 <fail>

800036f8 <test_1811>:
800036f8:	71300193          	li	gp,1811
800036fc:	00002097          	auipc	ra,0x2
80003700:	b1c08093          	addi	ra,ra,-1252 # 80005218 <__BSS_END__+0x728>
80003704:	58213137          	lui	sp,0x58213
80003708:	09810113          	addi	sp,sp,152 # 58213098 <_start-0x27decf68>
8000370c:	ffd08093          	addi	ra,ra,-3
80003710:	0020a3a3          	sw	sp,7(ra)
80003714:	00002217          	auipc	tp,0x2
80003718:	b0820213          	addi	tp,tp,-1272 # 8000521c <__BSS_END__+0x72c>
8000371c:	00022283          	lw	t0,0(tp) # 0 <_start-0x80000000>
80003720:	582133b7          	lui	t2,0x58213
80003724:	09838393          	addi	t2,t2,152 # 58213098 <_start-0x27decf68>
80003728:	00728463          	beq	t0,t2,80003730 <test_1812>
8000372c:	8ddfc06f          	j	80000008 <fail>

80003730 <test_1812>:
80003730:	71400193          	li	gp,1812
80003734:	00000213          	li	tp,0
80003738:	aabbd0b7          	lui	ra,0xaabbd
8000373c:	cdd08093          	addi	ra,ra,-803 # aabbccdd <__global_pointer$+0x2abb7a95>
80003740:	00002117          	auipc	sp,0x2
80003744:	abc10113          	addi	sp,sp,-1348 # 800051fc <__BSS_END__+0x70c>
80003748:	00112023          	sw	ra,0(sp)
8000374c:	00012703          	lw	a4,0(sp)
80003750:	aabbd3b7          	lui	t2,0xaabbd
80003754:	cdd38393          	addi	t2,t2,-803 # aabbccdd <__global_pointer$+0x2abb7a95>
80003758:	00770463          	beq	a4,t2,80003760 <test_1812+0x30>
8000375c:	8adfc06f          	j	80000008 <fail>
80003760:	00120213          	addi	tp,tp,1 # 1 <_start-0x7fffffff>
80003764:	00200293          	li	t0,2
80003768:	fc5218e3          	bne	tp,t0,80003738 <test_1812+0x8>

8000376c <test_1813>:
8000376c:	71500193          	li	gp,1813
80003770:	00000213          	li	tp,0
80003774:	daabc0b7          	lui	ra,0xdaabc
80003778:	ccd08093          	addi	ra,ra,-819 # daabbccd <__global_pointer$+0x5aab6a85>
8000377c:	00002117          	auipc	sp,0x2
80003780:	a8410113          	addi	sp,sp,-1404 # 80005200 <__BSS_END__+0x710>
80003784:	00000013          	nop
80003788:	00112223          	sw	ra,4(sp)
8000378c:	00412703          	lw	a4,4(sp)
80003790:	daabc3b7          	lui	t2,0xdaabc
80003794:	ccd38393          	addi	t2,t2,-819 # daabbccd <__global_pointer$+0x5aab6a85>
80003798:	00770463          	beq	a4,t2,800037a0 <test_1813+0x34>
8000379c:	86dfc06f          	j	80000008 <fail>
800037a0:	00120213          	addi	tp,tp,1 # 1 <_start-0x7fffffff>
800037a4:	00200293          	li	t0,2
800037a8:	fc5216e3          	bne	tp,t0,80003774 <test_1813+0x8>

800037ac <test_1814>:
800037ac:	71600193          	li	gp,1814
800037b0:	00000213          	li	tp,0
800037b4:	ddaac0b7          	lui	ra,0xddaac
800037b8:	bcc08093          	addi	ra,ra,-1076 # ddaabbcc <__global_pointer$+0x5daa6984>
800037bc:	00002117          	auipc	sp,0x2
800037c0:	a4810113          	addi	sp,sp,-1464 # 80005204 <__BSS_END__+0x714>
800037c4:	00000013          	nop
800037c8:	00000013          	nop
800037cc:	00112423          	sw	ra,8(sp)
800037d0:	00812703          	lw	a4,8(sp)
800037d4:	ddaac3b7          	lui	t2,0xddaac
800037d8:	bcc38393          	addi	t2,t2,-1076 # ddaabbcc <__global_pointer$+0x5daa6984>
800037dc:	00770463          	beq	a4,t2,800037e4 <test_1814+0x38>
800037e0:	829fc06f          	j	80000008 <fail>
800037e4:	00120213          	addi	tp,tp,1 # 1 <_start-0x7fffffff>
800037e8:	00200293          	li	t0,2
800037ec:	fc5214e3          	bne	tp,t0,800037b4 <test_1814+0x8>

800037f0 <test_1815>:
800037f0:	71700193          	li	gp,1815
800037f4:	00000213          	li	tp,0
800037f8:	cddab0b7          	lui	ra,0xcddab
800037fc:	bbc08093          	addi	ra,ra,-1092 # cddaabbc <__global_pointer$+0x4dda5974>
80003800:	00000013          	nop
80003804:	00002117          	auipc	sp,0x2
80003808:	a0410113          	addi	sp,sp,-1532 # 80005208 <__BSS_END__+0x718>
8000380c:	00112623          	sw	ra,12(sp)
80003810:	00c12703          	lw	a4,12(sp)
80003814:	cddab3b7          	lui	t2,0xcddab
80003818:	bbc38393          	addi	t2,t2,-1092 # cddaabbc <__global_pointer$+0x4dda5974>
8000381c:	00770463          	beq	a4,t2,80003824 <test_1815+0x34>
80003820:	fe8fc06f          	j	80000008 <fail>
80003824:	00120213          	addi	tp,tp,1 # 1 <_start-0x7fffffff>
80003828:	00200293          	li	t0,2
8000382c:	fc5216e3          	bne	tp,t0,800037f8 <test_1815+0x8>

80003830 <test_1816>:
80003830:	71800193          	li	gp,1816
80003834:	00000213          	li	tp,0
80003838:	ccddb0b7          	lui	ra,0xccddb
8000383c:	abb08093          	addi	ra,ra,-1349 # ccddaabb <__global_pointer$+0x4cdd5873>
80003840:	00000013          	nop
80003844:	00002117          	auipc	sp,0x2
80003848:	9c810113          	addi	sp,sp,-1592 # 8000520c <__BSS_END__+0x71c>
8000384c:	00000013          	nop
80003850:	00112823          	sw	ra,16(sp)
80003854:	01012703          	lw	a4,16(sp)
80003858:	ccddb3b7          	lui	t2,0xccddb
8000385c:	abb38393          	addi	t2,t2,-1349 # ccddaabb <__global_pointer$+0x4cdd5873>
80003860:	00770463          	beq	a4,t2,80003868 <test_1816+0x38>
80003864:	fa4fc06f          	j	80000008 <fail>
80003868:	00120213          	addi	tp,tp,1 # 1 <_start-0x7fffffff>
8000386c:	00200293          	li	t0,2
80003870:	fc5214e3          	bne	tp,t0,80003838 <test_1816+0x8>

80003874 <test_1817>:
80003874:	71900193          	li	gp,1817
80003878:	00000213          	li	tp,0
8000387c:	bccde0b7          	lui	ra,0xbccde
80003880:	aab08093          	addi	ra,ra,-1365 # bccddaab <__global_pointer$+0x3ccd8863>
80003884:	00000013          	nop
80003888:	00000013          	nop
8000388c:	00002117          	auipc	sp,0x2
80003890:	98410113          	addi	sp,sp,-1660 # 80005210 <__BSS_END__+0x720>
80003894:	00112a23          	sw	ra,20(sp)
80003898:	01412703          	lw	a4,20(sp)
8000389c:	bccde3b7          	lui	t2,0xbccde
800038a0:	aab38393          	addi	t2,t2,-1365 # bccddaab <__global_pointer$+0x3ccd8863>
800038a4:	00770463          	beq	a4,t2,800038ac <test_1817+0x38>
800038a8:	f60fc06f          	j	80000008 <fail>
800038ac:	00120213          	addi	tp,tp,1 # 1 <_start-0x7fffffff>
800038b0:	00200293          	li	t0,2
800038b4:	fc5214e3          	bne	tp,t0,8000387c <test_1817+0x8>

800038b8 <test_1818>:
800038b8:	71a00193          	li	gp,1818
800038bc:	00000213          	li	tp,0
800038c0:	00002117          	auipc	sp,0x2
800038c4:	95410113          	addi	sp,sp,-1708 # 80005214 <__BSS_END__+0x724>
800038c8:	001120b7          	lui	ra,0x112
800038cc:	23308093          	addi	ra,ra,563 # 112233 <_start-0x7feeddcd>
800038d0:	00112023          	sw	ra,0(sp)
800038d4:	00012703          	lw	a4,0(sp)
800038d8:	001123b7          	lui	t2,0x112
800038dc:	23338393          	addi	t2,t2,563 # 112233 <_start-0x7feeddcd>
800038e0:	00770463          	beq	a4,t2,800038e8 <test_1818+0x30>
800038e4:	f24fc06f          	j	80000008 <fail>
800038e8:	00120213          	addi	tp,tp,1 # 1 <_start-0x7fffffff>
800038ec:	00200293          	li	t0,2
800038f0:	fc5218e3          	bne	tp,t0,800038c0 <test_1818+0x8>

800038f4 <test_1819>:
800038f4:	71b00193          	li	gp,1819
800038f8:	00000213          	li	tp,0
800038fc:	00002117          	auipc	sp,0x2
80003900:	91c10113          	addi	sp,sp,-1764 # 80005218 <__BSS_END__+0x728>
80003904:	300110b7          	lui	ra,0x30011
80003908:	22308093          	addi	ra,ra,547 # 30011223 <_start-0x4ffeeddd>
8000390c:	00000013          	nop
80003910:	00112223          	sw	ra,4(sp)
80003914:	00412703          	lw	a4,4(sp)
80003918:	300113b7          	lui	t2,0x30011
8000391c:	22338393          	addi	t2,t2,547 # 30011223 <_start-0x4ffeeddd>
80003920:	00770463          	beq	a4,t2,80003928 <test_1819+0x34>
80003924:	ee4fc06f          	j	80000008 <fail>
80003928:	00120213          	addi	tp,tp,1 # 1 <_start-0x7fffffff>
8000392c:	00200293          	li	t0,2
80003930:	fc5216e3          	bne	tp,t0,800038fc <test_1819+0x8>

80003934 <test_1820>:
80003934:	71c00193          	li	gp,1820
80003938:	00000213          	li	tp,0
8000393c:	00002117          	auipc	sp,0x2
80003940:	8e010113          	addi	sp,sp,-1824 # 8000521c <__BSS_END__+0x72c>
80003944:	330010b7          	lui	ra,0x33001
80003948:	12208093          	addi	ra,ra,290 # 33001122 <_start-0x4cffeede>
8000394c:	00000013          	nop
80003950:	00000013          	nop
80003954:	00112423          	sw	ra,8(sp)
80003958:	00812703          	lw	a4,8(sp)
8000395c:	330013b7          	lui	t2,0x33001
80003960:	12238393          	addi	t2,t2,290 # 33001122 <_start-0x4cffeede>
80003964:	00770463          	beq	a4,t2,8000396c <test_1820+0x38>
80003968:	ea0fc06f          	j	80000008 <fail>
8000396c:	00120213          	addi	tp,tp,1 # 1 <_start-0x7fffffff>
80003970:	00200293          	li	t0,2
80003974:	fc5214e3          	bne	tp,t0,8000393c <test_1820+0x8>

80003978 <test_1821>:
80003978:	71d00193          	li	gp,1821
8000397c:	00000213          	li	tp,0
80003980:	00002117          	auipc	sp,0x2
80003984:	8a010113          	addi	sp,sp,-1888 # 80005220 <__BSS_END__+0x730>
80003988:	00000013          	nop
8000398c:	233000b7          	lui	ra,0x23300
80003990:	11208093          	addi	ra,ra,274 # 23300112 <_start-0x5ccffeee>
80003994:	00112623          	sw	ra,12(sp)
80003998:	00c12703          	lw	a4,12(sp)
8000399c:	233003b7          	lui	t2,0x23300
800039a0:	11238393          	addi	t2,t2,274 # 23300112 <_start-0x5ccffeee>
800039a4:	00770463          	beq	a4,t2,800039ac <test_1821+0x34>
800039a8:	e60fc06f          	j	80000008 <fail>
800039ac:	00120213          	addi	tp,tp,1 # 1 <_start-0x7fffffff>
800039b0:	00200293          	li	t0,2
800039b4:	fc5216e3          	bne	tp,t0,80003980 <test_1821+0x8>

800039b8 <test_1822>:
800039b8:	71e00193          	li	gp,1822
800039bc:	00000213          	li	tp,0
800039c0:	00002117          	auipc	sp,0x2
800039c4:	86410113          	addi	sp,sp,-1948 # 80005224 <__BSS_END__+0x734>
800039c8:	00000013          	nop
800039cc:	223300b7          	lui	ra,0x22330
800039d0:	01108093          	addi	ra,ra,17 # 22330011 <_start-0x5dccffef>
800039d4:	00000013          	nop
800039d8:	00112823          	sw	ra,16(sp)
800039dc:	01012703          	lw	a4,16(sp)
800039e0:	223303b7          	lui	t2,0x22330
800039e4:	01138393          	addi	t2,t2,17 # 22330011 <_start-0x5dccffef>
800039e8:	00770463          	beq	a4,t2,800039f0 <test_1822+0x38>
800039ec:	e1cfc06f          	j	80000008 <fail>
800039f0:	00120213          	addi	tp,tp,1 # 1 <_start-0x7fffffff>
800039f4:	00200293          	li	t0,2
800039f8:	fc5214e3          	bne	tp,t0,800039c0 <test_1822+0x8>

800039fc <test_1823>:
800039fc:	71f00193          	li	gp,1823
80003a00:	00000213          	li	tp,0
80003a04:	00002117          	auipc	sp,0x2
80003a08:	82410113          	addi	sp,sp,-2012 # 80005228 <__BSS_END__+0x738>
80003a0c:	00000013          	nop
80003a10:	00000013          	nop
80003a14:	122330b7          	lui	ra,0x12233
80003a18:	00108093          	addi	ra,ra,1 # 12233001 <_start-0x6ddccfff>
80003a1c:	00112a23          	sw	ra,20(sp)
80003a20:	01412703          	lw	a4,20(sp)
80003a24:	122333b7          	lui	t2,0x12233
80003a28:	00138393          	addi	t2,t2,1 # 12233001 <_start-0x6ddccfff>
80003a2c:	00770463          	beq	a4,t2,80003a34 <test_1823+0x38>
80003a30:	dd8fc06f          	j	80000008 <fail>
80003a34:	00120213          	addi	tp,tp,1 # 1 <_start-0x7fffffff>
80003a38:	00200293          	li	t0,2
80003a3c:	fc5214e3          	bne	tp,t0,80003a04 <test_1823+0x8>
80003a40:	00300463          	beq	zero,gp,80003a48 <test_1823+0x4c>
80003a44:	de0fc06f          	j	80000024 <pass>
